
Projet_Multi_4X4.elf:     file format elf32-avr

Sections:
Idx Name          Size      VMA       LMA       File off  Algn
  0 .data         0000003c  00800100  000017e2  00001876  2**0
                  CONTENTS, ALLOC, LOAD, DATA
  1 .text         000017e2  00000000  00000000  00000094  2**1
                  CONTENTS, ALLOC, LOAD, READONLY, CODE
  2 .bss          0000016e  0080013c  0080013c  000018b2  2**0
                  ALLOC
  3 .comment      0000005c  00000000  00000000  000018b2  2**0
                  CONTENTS, READONLY
  4 .note.gnu.avr.deviceinfo 00000040  00000000  00000000  00001910  2**2
                  CONTENTS, READONLY
  5 .debug_aranges 00000308  00000000  00000000  00001950  2**0
                  CONTENTS, READONLY, DEBUGGING
  6 .debug_info   00002d15  00000000  00000000  00001c58  2**0
                  CONTENTS, READONLY, DEBUGGING
  7 .debug_abbrev 000010a4  00000000  00000000  0000496d  2**0
                  CONTENTS, READONLY, DEBUGGING
  8 .debug_line   000018bc  00000000  00000000  00005a11  2**0
                  CONTENTS, READONLY, DEBUGGING
  9 .debug_frame  0000094c  00000000  00000000  000072d0  2**2
                  CONTENTS, READONLY, DEBUGGING
 10 .debug_str    00000cd3  00000000  00000000  00007c1c  2**0
                  CONTENTS, READONLY, DEBUGGING
 11 .debug_loc    0000269e  00000000  00000000  000088ef  2**0
                  CONTENTS, READONLY, DEBUGGING
 12 .debug_ranges 000002c0  00000000  00000000  0000af8d  2**0
                  CONTENTS, READONLY, DEBUGGING

Disassembly of section .text:

00000000 <__vectors>:
       0:	0c 94 89 00 	jmp	0x112	; 0x112 <__ctors_end>
       4:	0c 94 a6 00 	jmp	0x14c	; 0x14c <__bad_interrupt>
       8:	0c 94 a6 00 	jmp	0x14c	; 0x14c <__bad_interrupt>
       c:	0c 94 a6 00 	jmp	0x14c	; 0x14c <__bad_interrupt>
      10:	0c 94 a6 00 	jmp	0x14c	; 0x14c <__bad_interrupt>
      14:	0c 94 a6 00 	jmp	0x14c	; 0x14c <__bad_interrupt>
      18:	0c 94 a6 00 	jmp	0x14c	; 0x14c <__bad_interrupt>
      1c:	0c 94 a6 00 	jmp	0x14c	; 0x14c <__bad_interrupt>
      20:	0c 94 a6 00 	jmp	0x14c	; 0x14c <__bad_interrupt>
      24:	0c 94 a6 00 	jmp	0x14c	; 0x14c <__bad_interrupt>
      28:	0c 94 a6 00 	jmp	0x14c	; 0x14c <__bad_interrupt>
      2c:	0c 94 a6 00 	jmp	0x14c	; 0x14c <__bad_interrupt>
      30:	0c 94 a6 00 	jmp	0x14c	; 0x14c <__bad_interrupt>
      34:	0c 94 a6 00 	jmp	0x14c	; 0x14c <__bad_interrupt>
      38:	0c 94 a6 00 	jmp	0x14c	; 0x14c <__bad_interrupt>
      3c:	0c 94 a6 00 	jmp	0x14c	; 0x14c <__bad_interrupt>
      40:	0c 94 a6 00 	jmp	0x14c	; 0x14c <__bad_interrupt>
      44:	0c 94 a6 00 	jmp	0x14c	; 0x14c <__bad_interrupt>
      48:	0c 94 a6 00 	jmp	0x14c	; 0x14c <__bad_interrupt>
      4c:	0c 94 a6 00 	jmp	0x14c	; 0x14c <__bad_interrupt>
      50:	0c 94 85 04 	jmp	0x90a	; 0x90a <__vector_20>
      54:	0c 94 54 04 	jmp	0x8a8	; 0x8a8 <__vector_21>
      58:	0c 94 a6 00 	jmp	0x14c	; 0x14c <__bad_interrupt>
      5c:	0c 94 a6 00 	jmp	0x14c	; 0x14c <__bad_interrupt>
      60:	0c 94 a6 00 	jmp	0x14c	; 0x14c <__bad_interrupt>
      64:	0c 94 a6 00 	jmp	0x14c	; 0x14c <__bad_interrupt>
      68:	0c 94 a6 00 	jmp	0x14c	; 0x14c <__bad_interrupt>
      6c:	0c 94 a6 00 	jmp	0x14c	; 0x14c <__bad_interrupt>
      70:	0c 94 de 04 	jmp	0x9bc	; 0x9bc <__vector_28>
      74:	0c 94 ad 04 	jmp	0x95a	; 0x95a <__vector_29>
      78:	0c 94 a6 00 	jmp	0x14c	; 0x14c <__bad_interrupt>
      7c:	0c 02       	muls	r16, r28
      7e:	0c 02       	muls	r16, r28
      80:	0c 02       	muls	r16, r28
      82:	0c 02       	muls	r16, r28
      84:	0c 02       	muls	r16, r28
      86:	22 02       	muls	r18, r18
      88:	22 02       	muls	r18, r18
      8a:	24 02       	muls	r18, r20
      8c:	0e 02       	muls	r16, r30
      8e:	0e 02       	muls	r16, r30
      90:	0e 02       	muls	r16, r30
      92:	0e 02       	muls	r16, r30
      94:	10 02       	muls	r17, r16
      96:	10 02       	muls	r17, r16
      98:	10 02       	muls	r17, r16
      9a:	10 02       	muls	r17, r16
      9c:	22 02       	muls	r18, r18
      9e:	22 02       	muls	r18, r18
      a0:	12 02       	muls	r17, r18
      a2:	12 02       	muls	r17, r18
      a4:	12 02       	muls	r17, r18
      a6:	12 02       	muls	r17, r18
      a8:	12 02       	muls	r17, r18
      aa:	22 02       	muls	r18, r18
      ac:	22 02       	muls	r18, r18
      ae:	14 02       	muls	r17, r20
      b0:	14 02       	muls	r17, r20
      b2:	14 02       	muls	r17, r20
      b4:	14 02       	muls	r17, r20
      b6:	22 02       	muls	r18, r18
      b8:	22 02       	muls	r18, r18
      ba:	22 02       	muls	r18, r18
      bc:	16 02       	muls	r17, r22
      be:	16 02       	muls	r17, r22
      c0:	16 02       	muls	r17, r22
      c2:	16 02       	muls	r17, r22
      c4:	16 02       	muls	r17, r22
      c6:	22 02       	muls	r18, r18
      c8:	22 02       	muls	r18, r18
      ca:	18 02       	muls	r17, r24
      cc:	1a 02       	muls	r17, r26
      ce:	1a 02       	muls	r17, r26
      d0:	1a 02       	muls	r17, r26
      d2:	1a 02       	muls	r17, r26
      d4:	1c 02       	muls	r17, r28
      d6:	1c 02       	muls	r17, r28
      d8:	1c 02       	muls	r17, r28
      da:	1c 02       	muls	r17, r28
      dc:	22 02       	muls	r18, r18
      de:	22 02       	muls	r18, r18
      e0:	1e 02       	muls	r17, r30
      e2:	1e 02       	muls	r17, r30
      e4:	1e 02       	muls	r17, r30
      e6:	1e 02       	muls	r17, r30
      e8:	1e 02       	muls	r17, r30
      ea:	22 02       	muls	r18, r18
      ec:	22 02       	muls	r18, r18
      ee:	20 02       	muls	r18, r16
      f0:	20 02       	muls	r18, r16
      f2:	20 02       	muls	r18, r16
      f4:	20 02       	muls	r18, r16
      f6:	87 02       	muls	r24, r23
      f8:	8b 02       	muls	r24, r27
      fa:	8f 02       	muls	r24, r31
      fc:	a1 02       	muls	r26, r17
      fe:	b3 02       	muls	r27, r19
     100:	bf 02       	muls	r27, r31
     102:	c8 02       	muls	r28, r24
     104:	ce 02       	muls	r28, r30

00000106 <__trampolines_end>:
     106:	63 64       	ori	r22, 0x43	; 67
     108:	69 6e       	ori	r22, 0xE9	; 233
     10a:	6f 70       	andi	r22, 0x0F	; 15
     10c:	73 75       	andi	r23, 0x53	; 83
     10e:	78 58       	subi	r23, 0x88	; 136
     110:	5b 00       	.word	0x005b	; ????

00000112 <__ctors_end>:
     112:	11 24       	eor	r1, r1
     114:	1f be       	out	0x3f, r1	; 63
     116:	cf ef       	ldi	r28, 0xFF	; 255
     118:	d8 e0       	ldi	r29, 0x08	; 8
     11a:	de bf       	out	0x3e, r29	; 62
     11c:	cd bf       	out	0x3d, r28	; 61

0000011e <__do_copy_data>:
     11e:	11 e0       	ldi	r17, 0x01	; 1
     120:	a0 e0       	ldi	r26, 0x00	; 0
     122:	b1 e0       	ldi	r27, 0x01	; 1
     124:	e2 ee       	ldi	r30, 0xE2	; 226
     126:	f7 e1       	ldi	r31, 0x17	; 23
     128:	02 c0       	rjmp	.+4      	; 0x12e <__do_copy_data+0x10>
     12a:	05 90       	lpm	r0, Z+
     12c:	0d 92       	st	X+, r0
     12e:	ac 33       	cpi	r26, 0x3C	; 60
     130:	b1 07       	cpc	r27, r17
     132:	d9 f7       	brne	.-10     	; 0x12a <__do_copy_data+0xc>

00000134 <__do_clear_bss>:
     134:	22 e0       	ldi	r18, 0x02	; 2
     136:	ac e3       	ldi	r26, 0x3C	; 60
     138:	b1 e0       	ldi	r27, 0x01	; 1
     13a:	01 c0       	rjmp	.+2      	; 0x13e <.do_clear_bss_start>

0000013c <.do_clear_bss_loop>:
     13c:	1d 92       	st	X+, r1

0000013e <.do_clear_bss_start>:
     13e:	aa 3a       	cpi	r26, 0xAA	; 170
     140:	b2 07       	cpc	r27, r18
     142:	e1 f7       	brne	.-8      	; 0x13c <.do_clear_bss_loop>
     144:	0e 94 41 03 	call	0x682	; 0x682 <main>
     148:	0c 94 ef 0b 	jmp	0x17de	; 0x17de <_exit>

0000014c <__bad_interrupt>:
     14c:	0c 94 00 00 	jmp	0	; 0x0 <__vectors>

00000150 <pwm0_init>:

void pwm1_set_PD5(uint16_t limit){ 
	OCR1A = limit;
}
void pwm1_set_PD4(uint16_t limit){
	OCR1B = limit;
     150:	84 b1       	in	r24, 0x04	; 4
     152:	80 61       	ori	r24, 0x10	; 16
     154:	84 b9       	out	0x04, r24	; 4
     156:	84 b1       	in	r24, 0x04	; 4
     158:	88 60       	ori	r24, 0x08	; 8
     15a:	84 b9       	out	0x04, r24	; 4
     15c:	84 b5       	in	r24, 0x24	; 36
     15e:	80 68       	ori	r24, 0x80	; 128
     160:	84 bd       	out	0x24, r24	; 36
     162:	84 b5       	in	r24, 0x24	; 36
     164:	80 62       	ori	r24, 0x20	; 32
     166:	84 bd       	out	0x24, r24	; 36
     168:	84 b5       	in	r24, 0x24	; 36
     16a:	8f 7b       	andi	r24, 0xBF	; 191
     16c:	84 bd       	out	0x24, r24	; 36
     16e:	84 b5       	in	r24, 0x24	; 36
     170:	8f 7e       	andi	r24, 0xEF	; 239
     172:	84 bd       	out	0x24, r24	; 36
     174:	84 b5       	in	r24, 0x24	; 36
     176:	81 60       	ori	r24, 0x01	; 1
     178:	84 bd       	out	0x24, r24	; 36
     17a:	84 b5       	in	r24, 0x24	; 36
     17c:	8d 7f       	andi	r24, 0xFD	; 253
     17e:	84 bd       	out	0x24, r24	; 36
     180:	16 bc       	out	0x26, r1	; 38
     182:	85 b5       	in	r24, 0x25	; 37
     184:	81 60       	ori	r24, 0x01	; 1
     186:	85 bd       	out	0x25, r24	; 37
     188:	85 b5       	in	r24, 0x25	; 37
     18a:	8d 7f       	andi	r24, 0xFD	; 253
     18c:	85 bd       	out	0x25, r24	; 37
     18e:	85 b5       	in	r24, 0x25	; 37
     190:	8b 7f       	andi	r24, 0xFB	; 251
     192:	85 bd       	out	0x25, r24	; 37
     194:	08 95       	ret

00000196 <pwm0_set_PB3>:
     196:	87 bd       	out	0x27, r24	; 39
     198:	08 95       	ret

0000019a <pwm0_set_PB4>:
     19a:	88 bd       	out	0x28, r24	; 40
     19c:	08 95       	ret

0000019e <pwm2_init>:
}

void pwm2_init(){
	// broches de PWM en sortie
	DDRD = set_bit(DDRD, PD6);
     19e:	8a b1       	in	r24, 0x0a	; 10
     1a0:	80 64       	ori	r24, 0x40	; 64
     1a2:	8a b9       	out	0x0a, r24	; 10
	DDRD = set_bit(DDRD, PD7);
     1a4:	8a b1       	in	r24, 0x0a	; 10
     1a6:	80 68       	ori	r24, 0x80	; 128
     1a8:	8a b9       	out	0x0a, r24	; 10
	// PEUT ETRE AUTRE CHOSE
	// 2-Initialisation du TIMER 0
	// 2.1- Mode de comparaison : "Toggle on compare match"

	
	TCCR2A = set_bit(TCCR2A,COM0A1);
     1aa:	e0 eb       	ldi	r30, 0xB0	; 176
     1ac:	f0 e0       	ldi	r31, 0x00	; 0
     1ae:	80 81       	ld	r24, Z
     1b0:	80 68       	ori	r24, 0x80	; 128
     1b2:	80 83       	st	Z, r24
	TCCR2A = set_bit(TCCR2A,COM0B1);
     1b4:	80 81       	ld	r24, Z
     1b6:	80 62       	ori	r24, 0x20	; 32
     1b8:	80 83       	st	Z, r24
	TCCR2A = clear_bit(TCCR2A,COM0A0);
     1ba:	80 81       	ld	r24, Z
     1bc:	8f 7b       	andi	r24, 0xBF	; 191
     1be:	80 83       	st	Z, r24
	TCCR2A = clear_bit(TCCR2A,COM0B0);
     1c0:	80 81       	ld	r24, Z
     1c2:	8f 7e       	andi	r24, 0xEF	; 239
     1c4:	80 83       	st	Z, r24
	
	
	
	// 2.2- Mode du compteur :  "PWM phase correct"
	
	TCCR2A = set_bit(TCCR2A,WGM00);
     1c6:	80 81       	ld	r24, Z
     1c8:	81 60       	ori	r24, 0x01	; 1
     1ca:	80 83       	st	Z, r24
	TCCR2A = clear_bit(TCCR2A,WGM01);
     1cc:	80 81       	ld	r24, Z
     1ce:	8d 7f       	andi	r24, 0xFD	; 253
     1d0:	80 83       	st	Z, r24
	
	// 2.3- Fixer la valeur initiale du compteur 0 √† 0
	
	TCNT2 = 0;
     1d2:	10 92 b2 00 	sts	0x00B2, r1	; 0x8000b2 <__TEXT_REGION_LENGTH__+0x7f80b2>
	
	// 2.4- Facteur de division de fr√©quence : 1
	
	TCCR2B = set_bit(TCCR2B,CS00);
     1d6:	e1 eb       	ldi	r30, 0xB1	; 177
     1d8:	f0 e0       	ldi	r31, 0x00	; 0
     1da:	80 81       	ld	r24, Z
     1dc:	81 60       	ori	r24, 0x01	; 1
     1de:	80 83       	st	Z, r24
	TCCR2B = clear_bit(TCCR2B,CS01);
     1e0:	80 81       	ld	r24, Z
     1e2:	8d 7f       	andi	r24, 0xFD	; 253
     1e4:	80 83       	st	Z, r24
	TCCR2B = clear_bit(TCCR2B,CS02);
     1e6:	80 81       	ld	r24, Z
     1e8:	8b 7f       	andi	r24, 0xFB	; 251
     1ea:	80 83       	st	Z, r24
     1ec:	08 95       	ret

000001ee <fifo_init>:
void fifo_clean(fifo_t* fifo){
	
	fifo->in_offset = fifo->out_offset;
	fifo->is_full = FALSE;
	fifo->is_empty = TRUE;
	fifo->nb_line = 0;
     1ee:	fc 01       	movw	r30, r24
     1f0:	71 83       	std	Z+1, r23	; 0x01
     1f2:	60 83       	st	Z, r22
     1f4:	42 83       	std	Z+2, r20	; 0x02
     1f6:	13 82       	std	Z+3, r1	; 0x03
     1f8:	14 82       	std	Z+4, r1	; 0x04
     1fa:	81 e0       	ldi	r24, 0x01	; 1
     1fc:	85 83       	std	Z+5, r24	; 0x05
     1fe:	16 82       	std	Z+6, r1	; 0x06
     200:	17 82       	std	Z+7, r1	; 0x07
     202:	08 95       	ret

00000204 <fifo_push>:
     204:	fc 01       	movw	r30, r24
     206:	86 81       	ldd	r24, Z+6	; 0x06
     208:	81 11       	cpse	r24, r1
     20a:	1f c0       	rjmp	.+62     	; 0x24a <fifo_push+0x46>
     20c:	a0 81       	ld	r26, Z
     20e:	b1 81       	ldd	r27, Z+1	; 0x01
     210:	83 81       	ldd	r24, Z+3	; 0x03
     212:	a8 0f       	add	r26, r24
     214:	b1 1d       	adc	r27, r1
     216:	6c 93       	st	X, r22
     218:	15 82       	std	Z+5, r1	; 0x05
     21a:	23 81       	ldd	r18, Z+3	; 0x03
     21c:	42 2f       	mov	r20, r18
     21e:	50 e0       	ldi	r21, 0x00	; 0
     220:	82 81       	ldd	r24, Z+2	; 0x02
     222:	90 e0       	ldi	r25, 0x00	; 0
     224:	01 97       	sbiw	r24, 0x01	; 1
     226:	48 17       	cp	r20, r24
     228:	59 07       	cpc	r21, r25
     22a:	11 f4       	brne	.+4      	; 0x230 <fifo_push+0x2c>
     22c:	13 82       	std	Z+3, r1	; 0x03
     22e:	02 c0       	rjmp	.+4      	; 0x234 <fifo_push+0x30>
     230:	2f 5f       	subi	r18, 0xFF	; 255
     232:	23 83       	std	Z+3, r18	; 0x03
     234:	6a 30       	cpi	r22, 0x0A	; 10
     236:	19 f4       	brne	.+6      	; 0x23e <fifo_push+0x3a>
     238:	87 81       	ldd	r24, Z+7	; 0x07
     23a:	8f 5f       	subi	r24, 0xFF	; 255
     23c:	87 83       	std	Z+7, r24	; 0x07
     23e:	93 81       	ldd	r25, Z+3	; 0x03
     240:	84 81       	ldd	r24, Z+4	; 0x04
     242:	98 13       	cpse	r25, r24
     244:	02 c0       	rjmp	.+4      	; 0x24a <fifo_push+0x46>
     246:	81 e0       	ldi	r24, 0x01	; 1
     248:	86 83       	std	Z+6, r24	; 0x06
     24a:	08 95       	ret

0000024c <fifo_pop>:
     24c:	fc 01       	movw	r30, r24
     24e:	85 81       	ldd	r24, Z+5	; 0x05
     250:	81 11       	cpse	r24, r1
     252:	20 c0       	rjmp	.+64     	; 0x294 <fifo_pop+0x48>
     254:	a0 81       	ld	r26, Z
     256:	b1 81       	ldd	r27, Z+1	; 0x01
     258:	94 81       	ldd	r25, Z+4	; 0x04
     25a:	49 2f       	mov	r20, r25
     25c:	50 e0       	ldi	r21, 0x00	; 0
     25e:	a4 0f       	add	r26, r20
     260:	b5 1f       	adc	r27, r21
     262:	8c 91       	ld	r24, X
     264:	16 82       	std	Z+6, r1	; 0x06
     266:	22 81       	ldd	r18, Z+2	; 0x02
     268:	30 e0       	ldi	r19, 0x00	; 0
     26a:	21 50       	subi	r18, 0x01	; 1
     26c:	31 09       	sbc	r19, r1
     26e:	42 17       	cp	r20, r18
     270:	53 07       	cpc	r21, r19
     272:	11 f4       	brne	.+4      	; 0x278 <fifo_pop+0x2c>
     274:	14 82       	std	Z+4, r1	; 0x04
     276:	02 c0       	rjmp	.+4      	; 0x27c <fifo_pop+0x30>
     278:	9f 5f       	subi	r25, 0xFF	; 255
     27a:	94 83       	std	Z+4, r25	; 0x04
     27c:	8a 30       	cpi	r24, 0x0A	; 10
     27e:	19 f4       	brne	.+6      	; 0x286 <fifo_pop+0x3a>
     280:	97 81       	ldd	r25, Z+7	; 0x07
     282:	91 50       	subi	r25, 0x01	; 1
     284:	97 83       	std	Z+7, r25	; 0x07
     286:	24 81       	ldd	r18, Z+4	; 0x04
     288:	93 81       	ldd	r25, Z+3	; 0x03
     28a:	29 13       	cpse	r18, r25
     28c:	04 c0       	rjmp	.+8      	; 0x296 <fifo_pop+0x4a>
     28e:	91 e0       	ldi	r25, 0x01	; 1
     290:	95 83       	std	Z+5, r25	; 0x05
     292:	08 95       	ret
     294:	80 e0       	ldi	r24, 0x00	; 0
     296:	08 95       	ret

00000298 <fifo_is_empty>:


bool fifo_is_empty(fifo_t* fifo) {

    return fifo->is_empty;
}
     298:	fc 01       	movw	r30, r24
     29a:	85 81       	ldd	r24, Z+5	; 0x05
     29c:	08 95       	ret

0000029e <clock_data>:

    COMMAND_MODE();

    clock_data(0b00010000 | right_left);     //Cursor or display shift

    DATA_MODE();
     29e:	88 b9       	out	0x08, r24	; 8
     2a0:	85 e8       	ldi	r24, 0x85	; 133
     2a2:	8a 95       	dec	r24
     2a4:	f1 f7       	brne	.-4      	; 0x2a2 <clock_data+0x4>
     2a6:	00 00       	nop
     2a8:	82 b1       	in	r24, 0x02	; 2
     2aa:	8f 77       	andi	r24, 0x7F	; 127
     2ac:	82 b9       	out	0x02, r24	; 2
     2ae:	85 e8       	ldi	r24, 0x85	; 133
     2b0:	8a 95       	dec	r24
     2b2:	f1 f7       	brne	.-4      	; 0x2b0 <clock_data+0x12>
     2b4:	00 00       	nop
     2b6:	82 b1       	in	r24, 0x02	; 2
     2b8:	80 68       	ori	r24, 0x80	; 128
     2ba:	82 b9       	out	0x02, r24	; 2
     2bc:	08 95       	ret

000002be <hd44780_clear_display>:
     2be:	82 b1       	in	r24, 0x02	; 2
     2c0:	8f 7d       	andi	r24, 0xDF	; 223
     2c2:	82 b9       	out	0x02, r24	; 2
     2c4:	81 e0       	ldi	r24, 0x01	; 1
     2c6:	0e 94 4f 01 	call	0x29e	; 0x29e <clock_data>
     2ca:	8f e9       	ldi	r24, 0x9F	; 159
     2cc:	9f e0       	ldi	r25, 0x0F	; 15
     2ce:	01 97       	sbiw	r24, 0x01	; 1
     2d0:	f1 f7       	brne	.-4      	; 0x2ce <hd44780_clear_display+0x10>
     2d2:	00 c0       	rjmp	.+0      	; 0x2d4 <hd44780_clear_display+0x16>
     2d4:	00 00       	nop
     2d6:	82 b1       	in	r24, 0x02	; 2
     2d8:	80 62       	ori	r24, 0x20	; 32
     2da:	82 b9       	out	0x02, r24	; 2
     2dc:	08 95       	ret

000002de <hd44780_set_entry_mode>:
     2de:	81 30       	cpi	r24, 0x01	; 1
     2e0:	11 f4       	brne	.+4      	; 0x2e6 <hd44780_set_entry_mode+0x8>
     2e2:	82 e0       	ldi	r24, 0x02	; 2
     2e4:	01 c0       	rjmp	.+2      	; 0x2e8 <hd44780_set_entry_mode+0xa>
     2e6:	80 e0       	ldi	r24, 0x00	; 0
     2e8:	92 b1       	in	r25, 0x02	; 2
     2ea:	9f 7d       	andi	r25, 0xDF	; 223
     2ec:	92 b9       	out	0x02, r25	; 2
     2ee:	84 60       	ori	r24, 0x04	; 4
     2f0:	0e 94 4f 01 	call	0x29e	; 0x29e <clock_data>
     2f4:	82 b1       	in	r24, 0x02	; 2
     2f6:	80 62       	ori	r24, 0x20	; 32
     2f8:	82 b9       	out	0x02, r24	; 2
     2fa:	08 95       	ret

000002fc <hd44780_set_display_control>:
     2fc:	81 30       	cpi	r24, 0x01	; 1
     2fe:	11 f0       	breq	.+4      	; 0x304 <hd44780_set_display_control+0x8>
     300:	80 e0       	ldi	r24, 0x00	; 0
     302:	01 c0       	rjmp	.+2      	; 0x306 <hd44780_set_display_control+0xa>
     304:	84 e0       	ldi	r24, 0x04	; 4
     306:	61 30       	cpi	r22, 0x01	; 1
     308:	09 f4       	brne	.+2      	; 0x30c <hd44780_set_display_control+0x10>
     30a:	82 60       	ori	r24, 0x02	; 2
     30c:	41 30       	cpi	r20, 0x01	; 1
     30e:	09 f4       	brne	.+2      	; 0x312 <hd44780_set_display_control+0x16>
     310:	81 60       	ori	r24, 0x01	; 1
     312:	92 b1       	in	r25, 0x02	; 2
     314:	9f 7d       	andi	r25, 0xDF	; 223
     316:	92 b9       	out	0x02, r25	; 2
     318:	88 60       	ori	r24, 0x08	; 8
     31a:	0e 94 4f 01 	call	0x29e	; 0x29e <clock_data>
     31e:	82 b1       	in	r24, 0x02	; 2
     320:	80 62       	ori	r24, 0x20	; 32
     322:	82 b9       	out	0x02, r24	; 2
     324:	08 95       	ret

00000326 <hd44780_init>:
     326:	cf 93       	push	r28
     328:	df 93       	push	r29
     32a:	c6 2f       	mov	r28, r22
     32c:	d4 2f       	mov	r29, r20
     32e:	98 e3       	ldi	r25, 0x38	; 56
     330:	98 b9       	out	0x08, r25	; 8
     332:	92 b1       	in	r25, 0x02	; 2
     334:	9f 7d       	andi	r25, 0xDF	; 223
     336:	92 b9       	out	0x02, r25	; 2
     338:	92 b1       	in	r25, 0x02	; 2
     33a:	9f 7b       	andi	r25, 0xBF	; 191
     33c:	92 b9       	out	0x02, r25	; 2
     33e:	9f ef       	ldi	r25, 0xFF	; 255
     340:	97 b9       	out	0x07, r25	; 7
     342:	91 b1       	in	r25, 0x01	; 1
     344:	90 6e       	ori	r25, 0xE0	; 224
     346:	91 b9       	out	0x01, r25	; 1
     348:	ef e1       	ldi	r30, 0x1F	; 31
     34a:	fe e4       	ldi	r31, 0x4E	; 78
     34c:	31 97       	sbiw	r30, 0x01	; 1
     34e:	f1 f7       	brne	.-4      	; 0x34c <hd44780_init+0x26>
     350:	00 c0       	rjmp	.+0      	; 0x352 <hd44780_init+0x2c>
     352:	00 00       	nop
     354:	92 b1       	in	r25, 0x02	; 2
     356:	9f 77       	andi	r25, 0x7F	; 127
     358:	92 b9       	out	0x02, r25	; 2
     35a:	ef e0       	ldi	r30, 0x0F	; 15
     35c:	f7 e2       	ldi	r31, 0x27	; 39
     35e:	31 97       	sbiw	r30, 0x01	; 1
     360:	f1 f7       	brne	.-4      	; 0x35e <hd44780_init+0x38>
     362:	00 c0       	rjmp	.+0      	; 0x364 <hd44780_init+0x3e>
     364:	00 00       	nop
     366:	92 b1       	in	r25, 0x02	; 2
     368:	90 68       	ori	r25, 0x80	; 128
     36a:	92 b9       	out	0x02, r25	; 2
     36c:	ef e0       	ldi	r30, 0x0F	; 15
     36e:	f7 e2       	ldi	r31, 0x27	; 39
     370:	31 97       	sbiw	r30, 0x01	; 1
     372:	f1 f7       	brne	.-4      	; 0x370 <hd44780_init+0x4a>
     374:	00 c0       	rjmp	.+0      	; 0x376 <hd44780_init+0x50>
     376:	00 00       	nop
     378:	92 b1       	in	r25, 0x02	; 2
     37a:	9f 77       	andi	r25, 0x7F	; 127
     37c:	92 b9       	out	0x02, r25	; 2
     37e:	e7 ec       	ldi	r30, 0xC7	; 199
     380:	f0 e0       	ldi	r31, 0x00	; 0
     382:	31 97       	sbiw	r30, 0x01	; 1
     384:	f1 f7       	brne	.-4      	; 0x382 <hd44780_init+0x5c>
     386:	00 c0       	rjmp	.+0      	; 0x388 <hd44780_init+0x62>
     388:	00 00       	nop
     38a:	92 b1       	in	r25, 0x02	; 2
     38c:	90 68       	ori	r25, 0x80	; 128
     38e:	92 b9       	out	0x02, r25	; 2
     390:	e7 ec       	ldi	r30, 0xC7	; 199
     392:	f0 e0       	ldi	r31, 0x00	; 0
     394:	31 97       	sbiw	r30, 0x01	; 1
     396:	f1 f7       	brne	.-4      	; 0x394 <hd44780_init+0x6e>
     398:	00 c0       	rjmp	.+0      	; 0x39a <hd44780_init+0x74>
     39a:	00 00       	nop
     39c:	92 b1       	in	r25, 0x02	; 2
     39e:	9f 77       	andi	r25, 0x7F	; 127
     3a0:	92 b9       	out	0x02, r25	; 2
     3a2:	ef ef       	ldi	r30, 0xFF	; 255
     3a4:	f5 e0       	ldi	r31, 0x05	; 5
     3a6:	31 97       	sbiw	r30, 0x01	; 1
     3a8:	f1 f7       	brne	.-4      	; 0x3a6 <hd44780_init+0x80>
     3aa:	00 c0       	rjmp	.+0      	; 0x3ac <hd44780_init+0x86>
     3ac:	00 00       	nop
     3ae:	92 b1       	in	r25, 0x02	; 2
     3b0:	90 68       	ori	r25, 0x80	; 128
     3b2:	92 b9       	out	0x02, r25	; 2
     3b4:	0e 94 6f 01 	call	0x2de	; 0x2de <hd44780_set_entry_mode>
     3b8:	4d 2f       	mov	r20, r29
     3ba:	6c 2f       	mov	r22, r28
     3bc:	81 e0       	ldi	r24, 0x01	; 1
     3be:	0e 94 7e 01 	call	0x2fc	; 0x2fc <hd44780_set_display_control>
     3c2:	0e 94 5f 01 	call	0x2be	; 0x2be <hd44780_clear_display>
     3c6:	df 91       	pop	r29
     3c8:	cf 91       	pop	r28
     3ca:	08 95       	ret

000003cc <hd44780_set_cursor_position>:
     3cc:	61 30       	cpi	r22, 0x01	; 1
     3ce:	11 f0       	breq	.+4      	; 0x3d4 <hd44780_set_cursor_position+0x8>
     3d0:	90 e0       	ldi	r25, 0x00	; 0
     3d2:	01 c0       	rjmp	.+2      	; 0x3d6 <hd44780_set_cursor_position+0xa>
     3d4:	90 e4       	ldi	r25, 0x40	; 64
     3d6:	89 0f       	add	r24, r25
     3d8:	92 b1       	in	r25, 0x02	; 2
     3da:	9f 7d       	andi	r25, 0xDF	; 223
     3dc:	92 b9       	out	0x02, r25	; 2
     3de:	80 68       	ori	r24, 0x80	; 128
     3e0:	0e 94 4f 01 	call	0x29e	; 0x29e <clock_data>
     3e4:	82 b1       	in	r24, 0x02	; 2
     3e6:	80 62       	ori	r24, 0x20	; 32
     3e8:	82 b9       	out	0x02, r24	; 2
     3ea:	08 95       	ret

000003ec <hd44780_write_char>:
}


void hd44780_write_char(char character){
     3ec:	e8 2f       	mov	r30, r24
	const char MAX_CHAR = 255;
#else
	const char MAX_CHAR = CHAR_LEFT_ARROW;
#endif

    DATA_MODE();
     3ee:	82 b1       	in	r24, 0x02	; 2
     3f0:	80 62       	ori	r24, 0x20	; 32
     3f2:	82 b9       	out	0x02, r24	; 2

    if((character >= ' ') && (character <= MAX_CHAR)){
     3f4:	e0 32       	cpi	r30, 0x20	; 32
     3f6:	20 f0       	brcs	.+8      	; 0x400 <__EEPROM_REGION_LENGTH__>

            clock_data(character);
     3f8:	8e 2f       	mov	r24, r30
     3fa:	0e 94 4f 01 	call	0x29e	; 0x29e <clock_data>
     3fe:	08 95       	ret
    }

    else{
		
		switch(character){
     400:	8e 2f       	mov	r24, r30
     402:	90 e0       	ldi	r25, 0x00	; 0
     404:	fc 01       	movw	r30, r24
     406:	e0 5c       	subi	r30, 0xC0	; 192
     408:	f1 09       	sbc	r31, r1
     40a:	ed 33       	cpi	r30, 0x3D	; 61
     40c:	f1 05       	cpc	r31, r1
     40e:	d0 f4       	brcc	.+52     	; 0x444 <__EEPROM_REGION_LENGTH__+0x44>
     410:	e2 5c       	subi	r30, 0xC2	; 194
     412:	ff 4f       	sbci	r31, 0xFF	; 255
     414:	0c 94 cb 05 	jmp	0xb96	; 0xb96 <__tablejump2__>
		case 0xC0:	//√Ä
		case 0xC1:	//A accent aigue
		case 0xC2:	//√Ç
		case 0xC3:	//A ???
		case 0xC4:	//√Ñ
			character = 'A';
     418:	81 e4       	ldi	r24, 0x41	; 65
     41a:	17 c0       	rjmp	.+46     	; 0x44a <__EEPROM_REGION_LENGTH__+0x4a>
					
		case 0xC8:	//√à
		case 0xC9:	//√â
		case 0xCA:	//√ä
		case 0xCB:	//√ã
			character = 'E';
     41c:	85 e4       	ldi	r24, 0x45	; 69
			break;
     41e:	15 c0       	rjmp	.+42     	; 0x44a <__EEPROM_REGION_LENGTH__+0x4a>
					
		case 0xCC:	//√å
		case 0xCD:	//I accent aigue
		case 0xCE:	//√é
		case 0xCF:	//√è
			character = 'I';
     420:	89 e4       	ldi	r24, 0x49	; 73
			break;
     422:	13 c0       	rjmp	.+38     	; 0x44a <__EEPROM_REGION_LENGTH__+0x4a>
		case 0xD2:	//√í
		case 0xD3:	//O accent aigue
		case 0xD4:	//√î
		case 0xD5:	//O ???
		case 0xD6:	//√ñ
			character = 'O';
     424:	8f e4       	ldi	r24, 0x4F	; 79
			break;
     426:	11 c0       	rjmp	.+34     	; 0x44a <__EEPROM_REGION_LENGTH__+0x4a>
					
		case 0xD9:	//√ô
		case 0xDA:	//U accent aigue
		case 0xDB:	//√õ
		case 0xDC:	//√ú
			character = 'U';
     428:	85 e5       	ldi	r24, 0x55	; 85
			break;
     42a:	0f c0       	rjmp	.+30     	; 0x44a <__EEPROM_REGION_LENGTH__+0x4a>
		case 0xE0:	//√†
		case 0xE1:	//a accent aigue
		case 0xE2:	//√¢
		case 0xE3:	//a ???
		case 0xE4:	//√§
			character = 'a';
     42c:	81 e6       	ldi	r24, 0x61	; 97
			break;
     42e:	0d c0       	rjmp	.+26     	; 0x44a <__EEPROM_REGION_LENGTH__+0x4a>
		
		case 0xE7:	//√ß
			character = 'c';
     430:	83 e6       	ldi	r24, 0x63	; 99
			break;
     432:	0b c0       	rjmp	.+22     	; 0x44a <__EEPROM_REGION_LENGTH__+0x4a>
			
		case 0xE8:	//√®
		case 0xE9:	//√©
		case 0xEA:	//√™
		case 0xEB:	//√´
			character = 'e';
     434:	85 e6       	ldi	r24, 0x65	; 101
			break;
     436:	09 c0       	rjmp	.+18     	; 0x44a <__EEPROM_REGION_LENGTH__+0x4a>
			
		case 0xEC:	//√¨
		case 0xED:	//i accent aigue
		case 0xEE:	//√Æ
		case 0xEF:	//√Ø
			character = 'i';
     438:	89 e6       	ldi	r24, 0x69	; 105
			break;
     43a:	07 c0       	rjmp	.+14     	; 0x44a <__EEPROM_REGION_LENGTH__+0x4a>
		case 0xF2:	//√≤
		case 0xF3:	//o accent aigue
		case 0xF4:	//√¥
		case 0xF5:	//o ???
		case 0xF6:	//√∂
			character = 'o';
     43c:	8f e6       	ldi	r24, 0x6F	; 111
			break;
     43e:	05 c0       	rjmp	.+10     	; 0x44a <__EEPROM_REGION_LENGTH__+0x4a>
			
		case 0xF9:	//√π
		case 0xFA:	//u accent aigue
		case 0xFB:	//√ª
		case 0xFC:	//√º
			character = 'u';
     440:	85 e7       	ldi	r24, 0x75	; 117
			break;
     442:	03 c0       	rjmp	.+6      	; 0x44a <__EEPROM_REGION_LENGTH__+0x4a>
		
		default:
			character = 0b10100101;  //une boule pas rapport
     444:	85 ea       	ldi	r24, 0xA5	; 165
			break;
     446:	01 c0       	rjmp	.+2      	; 0x44a <__EEPROM_REGION_LENGTH__+0x4a>
		case 0xC4:	//√Ñ
			character = 'A';
			break;
					
		case 0xC7:	//√á
			character = 'C';
     448:	83 e4       	ldi	r24, 0x43	; 67
		default:
			character = 0b10100101;  //une boule pas rapport
			break;
		}				

        clock_data(character);  //une boule pas rapport
     44a:	0e 94 4f 01 	call	0x29e	; 0x29e <clock_data>
     44e:	08 95       	ret

00000450 <lcd_init>:
Global functions LCD
******************************************************************************/

void lcd_init(void){

    hd44780_init(TRUE, TRUE, FALSE);
     450:	40 e0       	ldi	r20, 0x00	; 0
     452:	61 e0       	ldi	r22, 0x01	; 1
     454:	81 e0       	ldi	r24, 0x01	; 1
     456:	0e 94 93 01 	call	0x326	; 0x326 <hd44780_init>

    local_index = 0;
     45a:	10 92 3d 01 	sts	0x013D, r1	; 0x80013d <local_index>
	clear_required_flag = FALSE;
     45e:	10 92 3c 01 	sts	0x013C, r1	; 0x80013c <__data_end>
     462:	08 95       	ret

00000464 <lcd_clear_display>:
}


void lcd_clear_display(){

    hd44780_clear_display();
     464:	0e 94 5f 01 	call	0x2be	; 0x2be <hd44780_clear_display>

    local_index = 0;
     468:	10 92 3d 01 	sts	0x013D, r1	; 0x80013d <local_index>
     46c:	08 95       	ret

0000046e <lcd_set_cursor_position>:
}


void lcd_set_cursor_position(uint8_t col, uint8_t row){
     46e:	cf 93       	push	r28
     470:	df 93       	push	r29

    if((col >= 0) && (col < LCD_NB_COL) && (row >= 0) && (row < LCD_NB_ROW)){
     472:	80 31       	cpi	r24, 0x10	; 16
     474:	68 f4       	brcc	.+26     	; 0x490 <lcd_set_cursor_position+0x22>
     476:	62 30       	cpi	r22, 0x02	; 2
     478:	58 f4       	brcc	.+22     	; 0x490 <lcd_set_cursor_position+0x22>
     47a:	d6 2f       	mov	r29, r22
     47c:	c8 2f       	mov	r28, r24

        hd44780_set_cursor_position(col, row);
     47e:	0e 94 e6 01 	call	0x3cc	; 0x3cc <hd44780_set_cursor_position>

        local_index = col + row * LCD_NB_COL;
     482:	8c 2f       	mov	r24, r28
     484:	90 e1       	ldi	r25, 0x10	; 16
     486:	d9 9f       	mul	r29, r25
     488:	80 0d       	add	r24, r0
     48a:	11 24       	eor	r1, r1
     48c:	80 93 3d 01 	sts	0x013D, r24	; 0x80013d <local_index>
    }
}
     490:	df 91       	pop	r29
     492:	cf 91       	pop	r28
     494:	08 95       	ret

00000496 <index_to_col>:
/* lcd */

uint8_t index_to_col(uint8_t index){

    return index % LCD_NB_COL;
}
     496:	8f 70       	andi	r24, 0x0F	; 15
     498:	08 95       	ret

0000049a <index_to_row>:


uint8_t index_to_row(uint8_t index){

    return index / LCD_NB_COL;
}
     49a:	82 95       	swap	r24
     49c:	8f 70       	andi	r24, 0x0F	; 15
     49e:	08 95       	ret

000004a0 <shift_local_index>:

bool shift_local_index(bool foward){
     4a0:	1f 93       	push	r17
     4a2:	cf 93       	push	r28
     4a4:	df 93       	push	r29
     4a6:	18 2f       	mov	r17, r24

    uint8_t previous_row;

    previous_row = index_to_row(local_index);
     4a8:	c0 91 3d 01 	lds	r28, 0x013D	; 0x80013d <local_index>
     4ac:	8c 2f       	mov	r24, r28
     4ae:	0e 94 4d 02 	call	0x49a	; 0x49a <index_to_row>
     4b2:	d8 2f       	mov	r29, r24

    /* Si on est dans le sens foward */
    if(foward == TRUE){
     4b4:	11 30       	cpi	r17, 0x01	; 1
     4b6:	49 f4       	brne	.+18     	; 0x4ca <shift_local_index+0x2a>

        /* Si on est √† la fin */
        if(local_index >= MAX_INDEX - 1){
     4b8:	cf 31       	cpi	r28, 0x1F	; 31
     4ba:	18 f0       	brcs	.+6      	; 0x4c2 <shift_local_index+0x22>

			local_index = 0;
     4bc:	10 92 3d 01 	sts	0x013D, r1	; 0x80013d <local_index>
     4c0:	0d c0       	rjmp	.+26     	; 0x4dc <shift_local_index+0x3c>
        }

        else{

            local_index++;
     4c2:	cf 5f       	subi	r28, 0xFF	; 255
     4c4:	c0 93 3d 01 	sts	0x013D, r28	; 0x80013d <local_index>
     4c8:	09 c0       	rjmp	.+18     	; 0x4dc <shift_local_index+0x3c>

    /* Si on est dans le sens d√©cr√©mental foward ou incr√©mental backward*/
    else{

        /* Si on est au d√©but */
        if(local_index <= 0){
     4ca:	c1 11       	cpse	r28, r1
     4cc:	04 c0       	rjmp	.+8      	; 0x4d6 <shift_local_index+0x36>
			
            local_index = MAX_INDEX - 1;
     4ce:	8f e1       	ldi	r24, 0x1F	; 31
     4d0:	80 93 3d 01 	sts	0x013D, r24	; 0x80013d <local_index>
     4d4:	03 c0       	rjmp	.+6      	; 0x4dc <shift_local_index+0x3c>
        }

        else{

            local_index--;
     4d6:	c1 50       	subi	r28, 0x01	; 1
     4d8:	c0 93 3d 01 	sts	0x013D, r28	; 0x80013d <local_index>
        }
    }

    /* Si la row actuelle ne correspond pas √† l'ancienne il va falloir manuellement
    d√©placer le curseur */
    return (previous_row != index_to_row(local_index));
     4dc:	80 91 3d 01 	lds	r24, 0x013D	; 0x80013d <local_index>
     4e0:	0e 94 4d 02 	call	0x49a	; 0x49a <index_to_row>
     4e4:	91 e0       	ldi	r25, 0x01	; 1
     4e6:	d8 13       	cpse	r29, r24
     4e8:	01 c0       	rjmp	.+2      	; 0x4ec <shift_local_index+0x4c>
     4ea:	90 e0       	ldi	r25, 0x00	; 0
}
     4ec:	89 2f       	mov	r24, r25
     4ee:	df 91       	pop	r29
     4f0:	cf 91       	pop	r28
     4f2:	1f 91       	pop	r17
     4f4:	08 95       	ret

000004f6 <lcd_shift_cursor>:
        local_index = col + row * LCD_NB_COL;
    }
}


void lcd_shift_cursor(lcd_shift_e shift){
     4f6:	cf 93       	push	r28
     4f8:	df 93       	push	r29

    switch(shift){
     4fa:	90 e0       	ldi	r25, 0x00	; 0
     4fc:	88 30       	cpi	r24, 0x08	; 8
     4fe:	91 05       	cpc	r25, r1
     500:	08 f0       	brcs	.+2      	; 0x504 <lcd_shift_cursor+0xe>
     502:	51 c0       	rjmp	.+162    	; 0x5a6 <lcd_shift_cursor+0xb0>
     504:	fc 01       	movw	r30, r24
     506:	e5 58       	subi	r30, 0x85	; 133
     508:	ff 4f       	sbci	r31, 0xFF	; 255
     50a:	0c 94 cb 05 	jmp	0xb96	; 0xb96 <__tablejump2__>
    case LCD_SHIFT_RIGHT:

        shift_local_index(TRUE);
     50e:	81 e0       	ldi	r24, 0x01	; 1
     510:	0e 94 50 02 	call	0x4a0	; 0x4a0 <shift_local_index>

        break;
     514:	48 c0       	rjmp	.+144    	; 0x5a6 <lcd_shift_cursor+0xb0>

    case LCD_SHIFT_LEFT:

        shift_local_index(FALSE);
     516:	80 e0       	ldi	r24, 0x00	; 0
     518:	0e 94 50 02 	call	0x4a0	; 0x4a0 <shift_local_index>

        break;
     51c:	44 c0       	rjmp	.+136    	; 0x5a6 <lcd_shift_cursor+0xb0>

    case LCD_SHIFT_UP:

		// Si on est sur la ligne du haut
        if(index_to_row(local_index) <= 0){
     51e:	c0 91 3d 01 	lds	r28, 0x013D	; 0x80013d <local_index>
     522:	8c 2f       	mov	r24, r28
     524:	0e 94 4d 02 	call	0x49a	; 0x49a <index_to_row>
     528:	81 11       	cpse	r24, r1
     52a:	07 c0       	rjmp	.+14     	; 0x53a <lcd_shift_cursor+0x44>

			// On se rend √† la fin moins une ligne
            local_index += (MAX_INDEX - LCD_NB_COL);
     52c:	c0 5f       	subi	r28, 0xF0	; 240
     52e:	c0 93 3d 01 	sts	0x013D, r28	; 0x80013d <local_index>
			
			clear_required_flag = TRUE;
     532:	81 e0       	ldi	r24, 0x01	; 1
     534:	80 93 3c 01 	sts	0x013C, r24	; 0x80013c <__data_end>
     538:	36 c0       	rjmp	.+108    	; 0x5a6 <lcd_shift_cursor+0xb0>
        }

        else{
			
			// On recule d'une ligne
            local_index -= LCD_NB_COL;
     53a:	c0 51       	subi	r28, 0x10	; 16
     53c:	c0 93 3d 01 	sts	0x013D, r28	; 0x80013d <local_index>
     540:	32 c0       	rjmp	.+100    	; 0x5a6 <lcd_shift_cursor+0xb0>
        break;

    case LCD_SHIFT_DOWN:

		// Si on est rendu √† la derni√®re ligne
        if(index_to_row(local_index) >= LCD_NB_ROW - 1){
     542:	c0 91 3d 01 	lds	r28, 0x013D	; 0x80013d <local_index>
     546:	8c 2f       	mov	r24, r28
     548:	0e 94 4d 02 	call	0x49a	; 0x49a <index_to_row>
     54c:	88 23       	and	r24, r24
     54e:	39 f0       	breq	.+14     	; 0x55e <lcd_shift_cursor+0x68>

			// On ne garde que le num√©ro de colone (donc sa ram√®ne sur la premi√®re ligne)
            local_index %= LCD_NB_COL;
     550:	cf 70       	andi	r28, 0x0F	; 15
     552:	c0 93 3d 01 	sts	0x013D, r28	; 0x80013d <local_index>
			
			clear_required_flag = TRUE;
     556:	81 e0       	ldi	r24, 0x01	; 1
     558:	80 93 3c 01 	sts	0x013C, r24	; 0x80013c <__data_end>
     55c:	24 c0       	rjmp	.+72     	; 0x5a6 <lcd_shift_cursor+0xb0>
        }

        else{

			// On avance d'une ligne
            local_index += LCD_NB_COL;
     55e:	c0 5f       	subi	r28, 0xF0	; 240
     560:	c0 93 3d 01 	sts	0x013D, r28	; 0x80013d <local_index>
     564:	20 c0       	rjmp	.+64     	; 0x5a6 <lcd_shift_cursor+0xb0>

        break;
	
	case LCD_SHIFT_END:
	
		local_index = ((index_to_row(local_index) + 1) * LCD_NB_COL) - 1;
     566:	80 91 3d 01 	lds	r24, 0x013D	; 0x80013d <local_index>
     56a:	0e 94 4d 02 	call	0x49a	; 0x49a <index_to_row>
     56e:	90 e0       	ldi	r25, 0x00	; 0
     570:	01 96       	adiw	r24, 0x01	; 1
     572:	82 95       	swap	r24
     574:	80 7f       	andi	r24, 0xF0	; 240
     576:	81 50       	subi	r24, 0x01	; 1
     578:	80 93 3d 01 	sts	0x013D, r24	; 0x80013d <local_index>
		
		break;
     57c:	14 c0       	rjmp	.+40     	; 0x5a6 <lcd_shift_cursor+0xb0>
		
	case LCD_SHIFT_START:
		
		local_index = index_to_row(local_index) * LCD_NB_COL;
     57e:	80 91 3d 01 	lds	r24, 0x013D	; 0x80013d <local_index>
     582:	0e 94 4d 02 	call	0x49a	; 0x49a <index_to_row>
     586:	82 95       	swap	r24
     588:	80 7f       	andi	r24, 0xF0	; 240
     58a:	80 93 3d 01 	sts	0x013D, r24	; 0x80013d <local_index>
		
		break;
     58e:	0b c0       	rjmp	.+22     	; 0x5a6 <lcd_shift_cursor+0xb0>
		
	case LCD_SHIFT_TOP:
	
		// On ne garde que le num√©ro de colone (donc sa ram√®ne sur la premi√®re ligne)
		local_index %= LCD_NB_COL;
     590:	80 91 3d 01 	lds	r24, 0x013D	; 0x80013d <local_index>
     594:	8f 70       	andi	r24, 0x0F	; 15
     596:	80 93 3d 01 	sts	0x013D, r24	; 0x80013d <local_index>
		
		break;
     59a:	05 c0       	rjmp	.+10     	; 0x5a6 <lcd_shift_cursor+0xb0>
		
	case LCD_SHIFT_BOTTOM:
		
		// On se rend √† la fin moins une ligne
		local_index += (MAX_INDEX - LCD_NB_COL);
     59c:	80 91 3d 01 	lds	r24, 0x013D	; 0x80013d <local_index>
     5a0:	80 5f       	subi	r24, 0xF0	; 240
     5a2:	80 93 3d 01 	sts	0x013D, r24	; 0x80013d <local_index>
		
		break;
	}		

    hd44780_set_cursor_position(index_to_col(local_index), index_to_row(local_index));
     5a6:	c0 91 3d 01 	lds	r28, 0x013D	; 0x80013d <local_index>
     5aa:	8c 2f       	mov	r24, r28
     5ac:	0e 94 4d 02 	call	0x49a	; 0x49a <index_to_row>
     5b0:	d8 2f       	mov	r29, r24
     5b2:	8c 2f       	mov	r24, r28
     5b4:	0e 94 4b 02 	call	0x496	; 0x496 <index_to_col>
     5b8:	6d 2f       	mov	r22, r29
     5ba:	0e 94 e6 01 	call	0x3cc	; 0x3cc <hd44780_set_cursor_position>
}
     5be:	df 91       	pop	r29
     5c0:	cf 91       	pop	r28
     5c2:	08 95       	ret

000005c4 <lcd_write_char>:


void lcd_write_char(char character){
     5c4:	cf 93       	push	r28
     5c6:	df 93       	push	r29
     5c8:	c8 2f       	mov	r28, r24

    bool unsynced;
	
	// Si il s'agit d'un des 32 premier caract√®res ascii, on s'attend √† un contr√¥le
	// plut√¥t que l'affichage d'un caract√®re
	if(character < ' '){
     5ca:	80 32       	cpi	r24, 0x20	; 32
     5cc:	68 f4       	brcc	.+26     	; 0x5e8 <lcd_write_char+0x24>
		
		switch (character){
     5ce:	8a 30       	cpi	r24, 0x0A	; 10
     5d0:	19 f0       	breq	.+6      	; 0x5d8 <lcd_write_char+0x14>
     5d2:	8d 30       	cpi	r24, 0x0D	; 13
     5d4:	29 f0       	breq	.+10     	; 0x5e0 <lcd_write_char+0x1c>
     5d6:	24 c0       	rjmp	.+72     	; 0x620 <lcd_write_char+0x5c>
		case '\n':	// 0x0A	new line
			lcd_shift_cursor(LCD_SHIFT_DOWN);
     5d8:	83 e0       	ldi	r24, 0x03	; 3
     5da:	0e 94 7b 02 	call	0x4f6	; 0x4f6 <lcd_shift_cursor>
			break;
     5de:	20 c0       	rjmp	.+64     	; 0x620 <lcd_write_char+0x5c>
		case '\r':
			lcd_shift_cursor(LCD_SHIFT_START);
     5e0:	85 e0       	ldi	r24, 0x05	; 5
     5e2:	0e 94 7b 02 	call	0x4f6	; 0x4f6 <lcd_shift_cursor>
			break;
     5e6:	1c c0       	rjmp	.+56     	; 0x620 <lcd_write_char+0x5c>
		}		
	}

	else{
		
		if(clear_required_flag == TRUE){
     5e8:	80 91 3c 01 	lds	r24, 0x013C	; 0x80013c <__data_end>
     5ec:	81 30       	cpi	r24, 0x01	; 1
     5ee:	21 f4       	brne	.+8      	; 0x5f8 <lcd_write_char+0x34>
			
			hd44780_clear_display();
     5f0:	0e 94 5f 01 	call	0x2be	; 0x2be <hd44780_clear_display>
			//hd44780_set_cursor_position(index_to_col(local_index), index_to_row(local_index));
			clear_required_flag = FALSE;
     5f4:	10 92 3c 01 	sts	0x013C, r1	; 0x80013c <__data_end>
		}
		
		hd44780_write_char(character);
     5f8:	8c 2f       	mov	r24, r28
     5fa:	0e 94 f6 01 	call	0x3ec	; 0x3ec <hd44780_write_char>

		unsynced = shift_local_index(TRUE);
     5fe:	81 e0       	ldi	r24, 0x01	; 1
     600:	0e 94 50 02 	call	0x4a0	; 0x4a0 <shift_local_index>

		if(unsynced == TRUE){
     604:	81 30       	cpi	r24, 0x01	; 1
     606:	61 f4       	brne	.+24     	; 0x620 <lcd_write_char+0x5c>

			hd44780_set_cursor_position(index_to_col(local_index), index_to_row(local_index));
     608:	c0 91 3d 01 	lds	r28, 0x013D	; 0x80013d <local_index>
     60c:	8c 2f       	mov	r24, r28
     60e:	0e 94 4d 02 	call	0x49a	; 0x49a <index_to_row>
     612:	d8 2f       	mov	r29, r24
     614:	8c 2f       	mov	r24, r28
     616:	0e 94 4b 02 	call	0x496	; 0x496 <index_to_col>
     61a:	6d 2f       	mov	r22, r29
     61c:	0e 94 e6 01 	call	0x3cc	; 0x3cc <hd44780_set_cursor_position>
		}
	}
}
     620:	df 91       	pop	r29
     622:	cf 91       	pop	r28
     624:	08 95       	ret

00000626 <lcd_write_string>:


void lcd_write_string(const char* string){
     626:	0f 93       	push	r16
     628:	1f 93       	push	r17
     62a:	cf 93       	push	r28
     62c:	8c 01       	movw	r16, r24

    uint8_t index = 0;
     62e:	c0 e0       	ldi	r28, 0x00	; 0

    while(string[index] != '\0'){
     630:	03 c0       	rjmp	.+6      	; 0x638 <lcd_write_string+0x12>

        lcd_write_char(string[index]);
     632:	0e 94 e2 02 	call	0x5c4	; 0x5c4 <lcd_write_char>

        index++;
     636:	cf 5f       	subi	r28, 0xFF	; 255

void lcd_write_string(const char* string){

    uint8_t index = 0;

    while(string[index] != '\0'){
     638:	f8 01       	movw	r30, r16
     63a:	ec 0f       	add	r30, r28
     63c:	f1 1d       	adc	r31, r1
     63e:	80 81       	ld	r24, Z
     640:	81 11       	cpse	r24, r1
     642:	f7 cf       	rjmp	.-18     	; 0x632 <lcd_write_string+0xc>

        lcd_write_char(string[index]);

        index++;
    }
}
     644:	cf 91       	pop	r28
     646:	1f 91       	pop	r17
     648:	0f 91       	pop	r16
     64a:	08 95       	ret

0000064c <setPuissanceMoteurRoue>:
}
	void setRotation(uint8_t valeur){	
	}
	
	
	void setPuissanceMoteurRoue (uint8_t valeur){
     64c:	cf 93       	push	r28
     64e:	c8 2f       	mov	r28, r24
		pwm0_set_PB3(valeur);
     650:	0e 94 cb 00 	call	0x196	; 0x196 <pwm0_set_PB3>
		pwm0_set_PB4(valeur);
     654:	8c 2f       	mov	r24, r28
     656:	0e 94 cd 00 	call	0x19a	; 0x19a <pwm0_set_PB4>
	}
     65a:	cf 91       	pop	r28
     65c:	08 95       	ret

0000065e <display_heartbeat>:
	
	void display_heartbeat(void) {
		static uint8_t heartbeat = 'Z';
		heartbeat = (heartbeat == 'Z') ? ('A') : (heartbeat + 1);
     65e:	80 91 00 01 	lds	r24, 0x0100	; 0x800100 <__data_start>
     662:	8a 35       	cpi	r24, 0x5A	; 90
     664:	11 f0       	breq	.+4      	; 0x66a <display_heartbeat+0xc>
     666:	8f 5f       	subi	r24, 0xFF	; 255
     668:	01 c0       	rjmp	.+2      	; 0x66c <display_heartbeat+0xe>
     66a:	81 e4       	ldi	r24, 0x41	; 65
     66c:	80 93 00 01 	sts	0x0100, r24	; 0x800100 <__data_start>
		lcd_set_cursor_position(15, 1);
     670:	61 e0       	ldi	r22, 0x01	; 1
     672:	8f e0       	ldi	r24, 0x0F	; 15
     674:	0e 94 37 02 	call	0x46e	; 0x46e <lcd_set_cursor_position>
		lcd_write_char(heartbeat);
     678:	80 91 00 01 	lds	r24, 0x0100	; 0x800100 <__data_start>
     67c:	0e 94 e2 02 	call	0x5c4	; 0x5c4 <lcd_write_char>
     680:	08 95       	ret

00000682 <main>:





int main(void){
     682:	cf 93       	push	r28
     684:	df 93       	push	r29
     686:	cd b7       	in	r28, 0x3d	; 61
     688:	de b7       	in	r29, 0x3e	; 62
     68a:	c7 55       	subi	r28, 0x57	; 87
     68c:	d1 09       	sbc	r29, r1
     68e:	0f b6       	in	r0, 0x3f	; 63
     690:	f8 94       	cli
     692:	de bf       	out	0x3e, r29	; 62
     694:	0f be       	out	0x3f, r0	; 63
     696:	cd bf       	out	0x3d, r28	; 61
	
	//*******Fonction******
	uart_init(UART_0);
     698:	80 e0       	ldi	r24, 0x00	; 0
     69a:	0e 94 25 05 	call	0xa4a	; 0xa4a <uart_init>
	lcd_init();
     69e:	0e 94 28 02 	call	0x450	; 0x450 <lcd_init>
	pwm0_init();
     6a2:	0e 94 a8 00 	call	0x150	; 0x150 <pwm0_init>
	pwm2_init();
     6a6:	0e 94 cf 00 	call	0x19e	; 0x19e <pwm2_init>
	setPuissanceMoteurRoue ();
     6aa:	0e 94 26 03 	call	0x64c	; 0x64c <setPuissanceMoteurRoue>
	setRotation();

	sei();
     6ae:	78 94       	sei
	
	//*******Uint******
	uint8_t x = 0;			// Position Joystick x
     6b0:	19 82       	std	Y+1, r1	; 0x01
	uint8_t y = 0;			// Position Joystick y
     6b2:	1a 82       	std	Y+2, r1	; 0x02
	uint8_t z = 0;			// Position potentiomËtre
     6b4:	1b 82       	std	Y+3, r1	; 0x03
	uint8_t mode = 0;		// Variable selection des mondes 1: DÈplacement 2: Tir sw1
     6b6:	1c 82       	std	Y+4, r1	; 0x04
	uint8_t moteurLanceur = 0;	// Activation du moteur de tir sw2
     6b8:	1d 82       	std	Y+5, r1	; 0x05
	uint8_t servoMoteurLanceur = 0;		// Activation du servo-moteur tir sw3
     6ba:	1e 82       	std	Y+6, r1	; 0x06
	uint8_t joystick = 0;	// Bouton JoyStick pour R et D
     6bc:	1f 82       	std	Y+7, r1	; 0x07
	
	
	//******Strings*****
	char message[40] = {'\0'};
     6be:	88 e2       	ldi	r24, 0x28	; 40
     6c0:	fe 01       	movw	r30, r28
     6c2:	38 96       	adiw	r30, 0x08	; 8
     6c4:	df 01       	movw	r26, r30
     6c6:	98 2f       	mov	r25, r24
     6c8:	1d 92       	st	X+, r1
     6ca:	9a 95       	dec	r25
     6cc:	e9 f7       	brne	.-6      	; 0x6c8 <main+0x46>
	char str    [40] = {'\0'};
     6ce:	b8 96       	adiw	r30, 0x28	; 40
     6d0:	df 01       	movw	r26, r30
     6d2:	1d 92       	st	X+, r1
     6d4:	8a 95       	dec	r24
     6d6:	e9 f7       	brne	.-6      	; 0x6d2 <main+0x50>
	
	
	
	DDRB = clear_bits(DDRB, 0b0000111);
     6d8:	84 b1       	in	r24, 0x04	; 4
     6da:	88 7f       	andi	r24, 0xF8	; 248
     6dc:	84 b9       	out	0x04, r24	; 4
	while (1)
	{
		
// Lecture de donnee envoyer

		if (!uart_is_rx_buffer_empty(UART_0)){
     6de:	80 e0       	ldi	r24, 0x00	; 0
     6e0:	0e 94 76 05 	call	0xaec	; 0xaec <uart_is_rx_buffer_empty>
     6e4:	81 11       	cpse	r24, r1
     6e6:	59 c0       	rjmp	.+178    	; 0x79a <main+0x118>
			//if(uart_get_byte(UART_0) =='X'){
				lcd_clear_display();
     6e8:	0e 94 32 02 	call	0x464	; 0x464 <lcd_clear_display>
	#else
		//round up by default
		__ticks_dc = (uint32_t)(ceil(fabs(__tmp)));
	#endif

	__builtin_avr_delay_cycles(__ticks_dc);
     6ec:	8f e3       	ldi	r24, 0x3F	; 63
     6ee:	9c e9       	ldi	r25, 0x9C	; 156
     6f0:	01 97       	sbiw	r24, 0x01	; 1
     6f2:	f1 f7       	brne	.-4      	; 0x6f0 <main+0x6e>
     6f4:	00 c0       	rjmp	.+0      	; 0x6f6 <main+0x74>
     6f6:	00 00       	nop
				_delay_ms(20);
				uart_get_string(UART_0,message,151);
     6f8:	7e 01       	movw	r14, r28
     6fa:	98 e0       	ldi	r25, 0x08	; 8
     6fc:	e9 0e       	add	r14, r25
     6fe:	f1 1c       	adc	r15, r1
     700:	47 e9       	ldi	r20, 0x97	; 151
     702:	b7 01       	movw	r22, r14
     704:	80 e0       	ldi	r24, 0x00	; 0
     706:	0e 94 81 05 	call	0xb02	; 0xb02 <uart_get_string>

				sscanf(message,  "X%03dY%03dZ%03dm%dM%dL%dD%d\0", &x, &y, &z, &mode, &moteurLanceur, &servoMoteurLanceur, &joystick);
     70a:	ce 01       	movw	r24, r28
     70c:	07 96       	adiw	r24, 0x07	; 7
     70e:	9f 93       	push	r25
     710:	8f 93       	push	r24
     712:	01 97       	sbiw	r24, 0x01	; 1
     714:	9f 93       	push	r25
     716:	8f 93       	push	r24
     718:	01 97       	sbiw	r24, 0x01	; 1
     71a:	9f 93       	push	r25
     71c:	8f 93       	push	r24
     71e:	01 97       	sbiw	r24, 0x01	; 1
     720:	9f 93       	push	r25
     722:	8f 93       	push	r24
     724:	01 97       	sbiw	r24, 0x01	; 1
     726:	9f 93       	push	r25
     728:	8f 93       	push	r24
     72a:	01 97       	sbiw	r24, 0x01	; 1
     72c:	9f 93       	push	r25
     72e:	8f 93       	push	r24
     730:	01 97       	sbiw	r24, 0x01	; 1
     732:	9f 93       	push	r25
     734:	8f 93       	push	r24
     736:	01 e0       	ldi	r16, 0x01	; 1
     738:	11 e0       	ldi	r17, 0x01	; 1
     73a:	1f 93       	push	r17
     73c:	0f 93       	push	r16
     73e:	ff 92       	push	r15
     740:	ef 92       	push	r14
     742:	0e 94 f3 05 	call	0xbe6	; 0xbe6 <sscanf>
				//sprintf(str, "%s", message);
				
				sprintf(str, "X%03dY%03dZ%03dm%dM%dL%dD%d\0", x, y, z, mode, moteurLanceur, servoMoteurLanceur, joystick);
     746:	8f 81       	ldd	r24, Y+7	; 0x07
     748:	1f 92       	push	r1
     74a:	8f 93       	push	r24
     74c:	8e 81       	ldd	r24, Y+6	; 0x06
     74e:	1f 92       	push	r1
     750:	8f 93       	push	r24
     752:	8d 81       	ldd	r24, Y+5	; 0x05
     754:	1f 92       	push	r1
     756:	8f 93       	push	r24
     758:	8c 81       	ldd	r24, Y+4	; 0x04
     75a:	1f 92       	push	r1
     75c:	8f 93       	push	r24
     75e:	8b 81       	ldd	r24, Y+3	; 0x03
     760:	1f 92       	push	r1
     762:	8f 93       	push	r24
     764:	8a 81       	ldd	r24, Y+2	; 0x02
     766:	1f 92       	push	r1
     768:	8f 93       	push	r24
     76a:	89 81       	ldd	r24, Y+1	; 0x01
     76c:	1f 92       	push	r1
     76e:	8f 93       	push	r24
     770:	1f 93       	push	r17
     772:	0f 93       	push	r16
     774:	8e 01       	movw	r16, r28
     776:	00 5d       	subi	r16, 0xD0	; 208
     778:	1f 4f       	sbci	r17, 0xFF	; 255
     77a:	1f 93       	push	r17
     77c:	0f 93       	push	r16
     77e:	0e 94 d1 05 	call	0xba2	; 0xba2 <sprintf>
				lcd_set_cursor_position(0,0);
     782:	0f b6       	in	r0, 0x3f	; 63
     784:	f8 94       	cli
     786:	de bf       	out	0x3e, r29	; 62
     788:	0f be       	out	0x3f, r0	; 63
     78a:	cd bf       	out	0x3d, r28	; 61
     78c:	60 e0       	ldi	r22, 0x00	; 0
     78e:	80 e0       	ldi	r24, 0x00	; 0
     790:	0e 94 37 02 	call	0x46e	; 0x46e <lcd_set_cursor_position>

				lcd_write_string(str);
     794:	c8 01       	movw	r24, r16
     796:	0e 94 13 03 	call	0x626	; 0x626 <lcd_write_string>
		
			
		}
		
		switch (mode)
     79a:	8c 81       	ldd	r24, Y+4	; 0x04
     79c:	88 23       	and	r24, r24
     79e:	49 f1       	breq	.+82     	; 0x7f2 <main+0x170>
     7a0:	81 30       	cpi	r24, 0x01	; 1
     7a2:	09 f0       	breq	.+2      	; 0x7a6 <main+0x124>
     7a4:	4b c0       	rjmp	.+150    	; 0x83c <__DATA_REGION_LENGTH__+0x3c>
		{case 1:
			
			if (x >= 200){
     7a6:	89 81       	ldd	r24, Y+1	; 0x01
     7a8:	88 3c       	cpi	r24, 0xC8	; 200
     7aa:	68 f0       	brcs	.+26     	; 0x7c6 <main+0x144>
				DDRB = clear_bits(DDRB, 0b0000011);
     7ac:	84 b1       	in	r24, 0x04	; 4
     7ae:	8c 7f       	andi	r24, 0xFC	; 252
     7b0:	84 b9       	out	0x04, r24	; 4
				PORTB = set_bit(DDRB, 2);
     7b2:	84 b1       	in	r24, 0x04	; 4
     7b4:	84 60       	ori	r24, 0x04	; 4
     7b6:	85 b9       	out	0x05, r24	; 5
				pwm0_set_PB3(z);
     7b8:	8b 81       	ldd	r24, Y+3	; 0x03
     7ba:	0e 94 cb 00 	call	0x196	; 0x196 <pwm0_set_PB3>
				pwm0_set_PB4(z);
     7be:	8b 81       	ldd	r24, Y+3	; 0x03
     7c0:	0e 94 cd 00 	call	0x19a	; 0x19a <pwm0_set_PB4>
     7c4:	3b c0       	rjmp	.+118    	; 0x83c <__DATA_REGION_LENGTH__+0x3c>
			}
			else if (x <= 100){
     7c6:	85 36       	cpi	r24, 0x65	; 101
     7c8:	68 f4       	brcc	.+26     	; 0x7e4 <main+0x162>
				DDRB = clear_bits(DDRB, 0b0000011);
     7ca:	84 b1       	in	r24, 0x04	; 4
     7cc:	8c 7f       	andi	r24, 0xFC	; 252
     7ce:	84 b9       	out	0x04, r24	; 4
				PORTB = set_bit(DDRB, 1);
     7d0:	84 b1       	in	r24, 0x04	; 4
     7d2:	82 60       	ori	r24, 0x02	; 2
     7d4:	85 b9       	out	0x05, r24	; 5
				pwm0_set_PB3(z);
     7d6:	8b 81       	ldd	r24, Y+3	; 0x03
     7d8:	0e 94 cb 00 	call	0x196	; 0x196 <pwm0_set_PB3>
				pwm0_set_PB4(z);
     7dc:	8b 81       	ldd	r24, Y+3	; 0x03
     7de:	0e 94 cd 00 	call	0x19a	; 0x19a <pwm0_set_PB4>
     7e2:	2c c0       	rjmp	.+88     	; 0x83c <__DATA_REGION_LENGTH__+0x3c>
			}
			
			else{
				pwm0_set_PB3(0);
     7e4:	80 e0       	ldi	r24, 0x00	; 0
     7e6:	0e 94 cb 00 	call	0x196	; 0x196 <pwm0_set_PB3>
				pwm0_set_PB4(0);
     7ea:	80 e0       	ldi	r24, 0x00	; 0
     7ec:	0e 94 cd 00 	call	0x19a	; 0x19a <pwm0_set_PB4>
     7f0:	25 c0       	rjmp	.+74     	; 0x83c <__DATA_REGION_LENGTH__+0x3c>
				break;
		case 0:
		
		// changer la variable moteur pour diration R --> arrier D --> Avant
		// NOTE :  ceci est un brouillon
		if(joystick == 1){
     7f2:	8f 81       	ldd	r24, Y+7	; 0x07
     7f4:	81 30       	cpi	r24, 0x01	; 1
     7f6:	69 f4       	brne	.+26     	; 0x812 <__DATA_REGION_LENGTH__+0x12>
			
				DDRB = clear_bits(DDRB, 0b0000011);
     7f8:	84 b1       	in	r24, 0x04	; 4
     7fa:	8c 7f       	andi	r24, 0xFC	; 252
     7fc:	84 b9       	out	0x04, r24	; 4
				//PB1 = 1 PB2 = 1 Alors la direction est vers l<avant 
				PORTB = set_bit(DDRB, 3);
     7fe:	84 b1       	in	r24, 0x04	; 4
     800:	88 60       	ori	r24, 0x08	; 8
     802:	85 b9       	out	0x05, r24	; 5
				pwm0_set_PB3(z);
     804:	8b 81       	ldd	r24, Y+3	; 0x03
     806:	0e 94 cb 00 	call	0x196	; 0x196 <pwm0_set_PB3>
				pwm0_set_PB4(z);
     80a:	8b 81       	ldd	r24, Y+3	; 0x03
     80c:	0e 94 cd 00 	call	0x19a	; 0x19a <pwm0_set_PB4>
     810:	15 c0       	rjmp	.+42     	; 0x83c <__DATA_REGION_LENGTH__+0x3c>
		}
		else if (joystick == 0){
     812:	81 11       	cpse	r24, r1
     814:	0d c0       	rjmp	.+26     	; 0x830 <__DATA_REGION_LENGTH__+0x30>
				DDRB = clear_bits(DDRB, 0b0000011);
     816:	84 b1       	in	r24, 0x04	; 4
     818:	8c 7f       	andi	r24, 0xFC	; 252
     81a:	84 b9       	out	0x04, r24	; 4
				PORTB = set_bit(DDRB,0);
     81c:	84 b1       	in	r24, 0x04	; 4
     81e:	81 60       	ori	r24, 0x01	; 1
     820:	85 b9       	out	0x05, r24	; 5
				pwm0_set_PB3(z);
     822:	8b 81       	ldd	r24, Y+3	; 0x03
     824:	0e 94 cb 00 	call	0x196	; 0x196 <pwm0_set_PB3>
				pwm0_set_PB4(z);
     828:	8b 81       	ldd	r24, Y+3	; 0x03
     82a:	0e 94 cd 00 	call	0x19a	; 0x19a <pwm0_set_PB4>
     82e:	06 c0       	rjmp	.+12     	; 0x83c <__DATA_REGION_LENGTH__+0x3c>
			}
			
		else{
				pwm0_set_PB3(0);
     830:	80 e0       	ldi	r24, 0x00	; 0
     832:	0e 94 cb 00 	call	0x196	; 0x196 <pwm0_set_PB3>
				pwm0_set_PB4(0);
     836:	80 e0       	ldi	r24, 0x00	; 0
     838:	0e 94 cd 00 	call	0x19a	; 0x19a <pwm0_set_PB4>
			break;
		}
	
	
		
	display_heartbeat();		
     83c:	0e 94 2f 03 	call	0x65e	; 0x65e <display_heartbeat>
	}
     840:	4e cf       	rjmp	.-356    	; 0x6de <main+0x5c>

00000842 <disable_UDRE_interupt>:


/*** uart_clean_rx_buffer ***/
void uart_clean_rx_buffer(uart_e port){

	fifo_clean(rx_fifo_list[port]);
     842:	88 23       	and	r24, r24
     844:	19 f0       	breq	.+6      	; 0x84c <disable_UDRE_interupt+0xa>
     846:	81 30       	cpi	r24, 0x01	; 1
     848:	39 f0       	breq	.+14     	; 0x858 <disable_UDRE_interupt+0x16>
     84a:	08 95       	ret
     84c:	e1 ec       	ldi	r30, 0xC1	; 193
     84e:	f0 e0       	ldi	r31, 0x00	; 0
     850:	80 81       	ld	r24, Z
     852:	8f 7d       	andi	r24, 0xDF	; 223
     854:	80 83       	st	Z, r24
     856:	08 95       	ret
     858:	e9 ec       	ldi	r30, 0xC9	; 201
     85a:	f0 e0       	ldi	r31, 0x00	; 0
     85c:	80 81       	ld	r24, Z
     85e:	8f 7d       	andi	r24, 0xDF	; 223
     860:	80 83       	st	Z, r24
     862:	08 95       	ret

00000864 <enable_RX_interupt>:
     864:	88 23       	and	r24, r24
     866:	19 f0       	breq	.+6      	; 0x86e <enable_RX_interupt+0xa>
     868:	81 30       	cpi	r24, 0x01	; 1
     86a:	39 f0       	breq	.+14     	; 0x87a <enable_RX_interupt+0x16>
     86c:	08 95       	ret
     86e:	e1 ec       	ldi	r30, 0xC1	; 193
     870:	f0 e0       	ldi	r31, 0x00	; 0
     872:	80 81       	ld	r24, Z
     874:	80 68       	ori	r24, 0x80	; 128
     876:	80 83       	st	Z, r24
     878:	08 95       	ret
     87a:	e9 ec       	ldi	r30, 0xC9	; 201
     87c:	f0 e0       	ldi	r31, 0x00	; 0
     87e:	80 81       	ld	r24, Z
     880:	80 68       	ori	r24, 0x80	; 128
     882:	80 83       	st	Z, r24
     884:	08 95       	ret

00000886 <disable_RX_interupt>:
     886:	88 23       	and	r24, r24
     888:	19 f0       	breq	.+6      	; 0x890 <disable_RX_interupt+0xa>
     88a:	81 30       	cpi	r24, 0x01	; 1
     88c:	39 f0       	breq	.+14     	; 0x89c <disable_RX_interupt+0x16>
     88e:	08 95       	ret
     890:	e1 ec       	ldi	r30, 0xC1	; 193
     892:	f0 e0       	ldi	r31, 0x00	; 0
     894:	80 81       	ld	r24, Z
     896:	8f 77       	andi	r24, 0x7F	; 127
     898:	80 83       	st	Z, r24
     89a:	08 95       	ret
     89c:	e9 ec       	ldi	r30, 0xC9	; 201
     89e:	f0 e0       	ldi	r31, 0x00	; 0
     8a0:	80 81       	ld	r24, Z
     8a2:	8f 77       	andi	r24, 0x7F	; 127
     8a4:	80 83       	st	Z, r24
     8a6:	08 95       	ret

000008a8 <__vector_21>:
     8a8:	1f 92       	push	r1
     8aa:	0f 92       	push	r0
     8ac:	0f b6       	in	r0, 0x3f	; 63
     8ae:	0f 92       	push	r0
     8b0:	11 24       	eor	r1, r1
     8b2:	2f 93       	push	r18
     8b4:	3f 93       	push	r19
     8b6:	4f 93       	push	r20
     8b8:	5f 93       	push	r21
     8ba:	6f 93       	push	r22
     8bc:	7f 93       	push	r23
     8be:	8f 93       	push	r24
     8c0:	9f 93       	push	r25
     8c2:	af 93       	push	r26
     8c4:	bf 93       	push	r27
     8c6:	ef 93       	push	r30
     8c8:	ff 93       	push	r31
     8ca:	8e e4       	ldi	r24, 0x4E	; 78
     8cc:	91 e0       	ldi	r25, 0x01	; 1
     8ce:	0e 94 26 01 	call	0x24c	; 0x24c <fifo_pop>
     8d2:	80 93 c6 00 	sts	0x00C6, r24	; 0x8000c6 <__TEXT_REGION_LENGTH__+0x7f80c6>
     8d6:	8e e4       	ldi	r24, 0x4E	; 78
     8d8:	91 e0       	ldi	r25, 0x01	; 1
     8da:	0e 94 4c 01 	call	0x298	; 0x298 <fifo_is_empty>
     8de:	81 30       	cpi	r24, 0x01	; 1
     8e0:	19 f4       	brne	.+6      	; 0x8e8 <__vector_21+0x40>
     8e2:	80 e0       	ldi	r24, 0x00	; 0
     8e4:	0e 94 21 04 	call	0x842	; 0x842 <disable_UDRE_interupt>
     8e8:	ff 91       	pop	r31
     8ea:	ef 91       	pop	r30
     8ec:	bf 91       	pop	r27
     8ee:	af 91       	pop	r26
     8f0:	9f 91       	pop	r25
     8f2:	8f 91       	pop	r24
     8f4:	7f 91       	pop	r23
     8f6:	6f 91       	pop	r22
     8f8:	5f 91       	pop	r21
     8fa:	4f 91       	pop	r20
     8fc:	3f 91       	pop	r19
     8fe:	2f 91       	pop	r18
     900:	0f 90       	pop	r0
     902:	0f be       	out	0x3f, r0	; 63
     904:	0f 90       	pop	r0
     906:	1f 90       	pop	r1
     908:	18 95       	reti

0000090a <__vector_20>:
     90a:	1f 92       	push	r1
     90c:	0f 92       	push	r0
     90e:	0f b6       	in	r0, 0x3f	; 63
     910:	0f 92       	push	r0
     912:	11 24       	eor	r1, r1
     914:	2f 93       	push	r18
     916:	3f 93       	push	r19
     918:	4f 93       	push	r20
     91a:	5f 93       	push	r21
     91c:	6f 93       	push	r22
     91e:	7f 93       	push	r23
     920:	8f 93       	push	r24
     922:	9f 93       	push	r25
     924:	af 93       	push	r26
     926:	bf 93       	push	r27
     928:	ef 93       	push	r30
     92a:	ff 93       	push	r31
     92c:	60 91 c6 00 	lds	r22, 0x00C6	; 0x8000c6 <__TEXT_REGION_LENGTH__+0x7f80c6>
     930:	86 e5       	ldi	r24, 0x56	; 86
     932:	91 e0       	ldi	r25, 0x01	; 1
     934:	0e 94 02 01 	call	0x204	; 0x204 <fifo_push>
     938:	ff 91       	pop	r31
     93a:	ef 91       	pop	r30
     93c:	bf 91       	pop	r27
     93e:	af 91       	pop	r26
     940:	9f 91       	pop	r25
     942:	8f 91       	pop	r24
     944:	7f 91       	pop	r23
     946:	6f 91       	pop	r22
     948:	5f 91       	pop	r21
     94a:	4f 91       	pop	r20
     94c:	3f 91       	pop	r19
     94e:	2f 91       	pop	r18
     950:	0f 90       	pop	r0
     952:	0f be       	out	0x3f, r0	; 63
     954:	0f 90       	pop	r0
     956:	1f 90       	pop	r1
     958:	18 95       	reti

0000095a <__vector_29>:
     95a:	1f 92       	push	r1
     95c:	0f 92       	push	r0
     95e:	0f b6       	in	r0, 0x3f	; 63
     960:	0f 92       	push	r0
     962:	11 24       	eor	r1, r1
     964:	2f 93       	push	r18
     966:	3f 93       	push	r19
     968:	4f 93       	push	r20
     96a:	5f 93       	push	r21
     96c:	6f 93       	push	r22
     96e:	7f 93       	push	r23
     970:	8f 93       	push	r24
     972:	9f 93       	push	r25
     974:	af 93       	push	r26
     976:	bf 93       	push	r27
     978:	ef 93       	push	r30
     97a:	ff 93       	push	r31
     97c:	8e e3       	ldi	r24, 0x3E	; 62
     97e:	91 e0       	ldi	r25, 0x01	; 1
     980:	0e 94 26 01 	call	0x24c	; 0x24c <fifo_pop>
     984:	80 93 ce 00 	sts	0x00CE, r24	; 0x8000ce <__TEXT_REGION_LENGTH__+0x7f80ce>
     988:	8e e3       	ldi	r24, 0x3E	; 62
     98a:	91 e0       	ldi	r25, 0x01	; 1
     98c:	0e 94 4c 01 	call	0x298	; 0x298 <fifo_is_empty>
     990:	88 23       	and	r24, r24
     992:	19 f0       	breq	.+6      	; 0x99a <__vector_29+0x40>
     994:	81 e0       	ldi	r24, 0x01	; 1
     996:	0e 94 21 04 	call	0x842	; 0x842 <disable_UDRE_interupt>
     99a:	ff 91       	pop	r31
     99c:	ef 91       	pop	r30
     99e:	bf 91       	pop	r27
     9a0:	af 91       	pop	r26
     9a2:	9f 91       	pop	r25
     9a4:	8f 91       	pop	r24
     9a6:	7f 91       	pop	r23
     9a8:	6f 91       	pop	r22
     9aa:	5f 91       	pop	r21
     9ac:	4f 91       	pop	r20
     9ae:	3f 91       	pop	r19
     9b0:	2f 91       	pop	r18
     9b2:	0f 90       	pop	r0
     9b4:	0f be       	out	0x3f, r0	; 63
     9b6:	0f 90       	pop	r0
     9b8:	1f 90       	pop	r1
     9ba:	18 95       	reti

000009bc <__vector_28>:
     9bc:	1f 92       	push	r1
     9be:	0f 92       	push	r0
     9c0:	0f b6       	in	r0, 0x3f	; 63
     9c2:	0f 92       	push	r0
     9c4:	11 24       	eor	r1, r1
     9c6:	2f 93       	push	r18
     9c8:	3f 93       	push	r19
     9ca:	4f 93       	push	r20
     9cc:	5f 93       	push	r21
     9ce:	6f 93       	push	r22
     9d0:	7f 93       	push	r23
     9d2:	8f 93       	push	r24
     9d4:	9f 93       	push	r25
     9d6:	af 93       	push	r26
     9d8:	bf 93       	push	r27
     9da:	ef 93       	push	r30
     9dc:	ff 93       	push	r31
     9de:	60 91 ce 00 	lds	r22, 0x00CE	; 0x8000ce <__TEXT_REGION_LENGTH__+0x7f80ce>
     9e2:	86 e4       	ldi	r24, 0x46	; 70
     9e4:	91 e0       	ldi	r25, 0x01	; 1
     9e6:	0e 94 02 01 	call	0x204	; 0x204 <fifo_push>
     9ea:	ff 91       	pop	r31
     9ec:	ef 91       	pop	r30
     9ee:	bf 91       	pop	r27
     9f0:	af 91       	pop	r26
     9f2:	9f 91       	pop	r25
     9f4:	8f 91       	pop	r24
     9f6:	7f 91       	pop	r23
     9f8:	6f 91       	pop	r22
     9fa:	5f 91       	pop	r21
     9fc:	4f 91       	pop	r20
     9fe:	3f 91       	pop	r19
     a00:	2f 91       	pop	r18
     a02:	0f 90       	pop	r0
     a04:	0f be       	out	0x3f, r0	; 63
     a06:	0f 90       	pop	r0
     a08:	1f 90       	pop	r1
     a0a:	18 95       	reti

00000a0c <uart_set_baudrate>:
     a0c:	88 23       	and	r24, r24
     a0e:	19 f0       	breq	.+6      	; 0xa16 <uart_set_baudrate+0xa>
     a10:	81 30       	cpi	r24, 0x01	; 1
     a12:	71 f0       	breq	.+28     	; 0xa30 <uart_set_baudrate+0x24>
     a14:	08 95       	ret
     a16:	e6 2f       	mov	r30, r22
     a18:	f0 e0       	ldi	r31, 0x00	; 0
     a1a:	ee 0f       	add	r30, r30
     a1c:	ff 1f       	adc	r31, r31
     a1e:	e7 5d       	subi	r30, 0xD7	; 215
     a20:	fe 4f       	sbci	r31, 0xFE	; 254
     a22:	80 81       	ld	r24, Z
     a24:	91 81       	ldd	r25, Z+1	; 0x01
     a26:	90 93 c5 00 	sts	0x00C5, r25	; 0x8000c5 <__TEXT_REGION_LENGTH__+0x7f80c5>
     a2a:	80 93 c4 00 	sts	0x00C4, r24	; 0x8000c4 <__TEXT_REGION_LENGTH__+0x7f80c4>
     a2e:	08 95       	ret
     a30:	e6 2f       	mov	r30, r22
     a32:	f0 e0       	ldi	r31, 0x00	; 0
     a34:	ee 0f       	add	r30, r30
     a36:	ff 1f       	adc	r31, r31
     a38:	e7 5d       	subi	r30, 0xD7	; 215
     a3a:	fe 4f       	sbci	r31, 0xFE	; 254
     a3c:	80 81       	ld	r24, Z
     a3e:	91 81       	ldd	r25, Z+1	; 0x01
     a40:	90 93 cd 00 	sts	0x00CD, r25	; 0x8000cd <__TEXT_REGION_LENGTH__+0x7f80cd>
     a44:	80 93 cc 00 	sts	0x00CC, r24	; 0x8000cc <__TEXT_REGION_LENGTH__+0x7f80cc>
     a48:	08 95       	ret

00000a4a <uart_init>:
     a4a:	cf 93       	push	r28
     a4c:	c8 2f       	mov	r28, r24
     a4e:	88 23       	and	r24, r24
     a50:	19 f0       	breq	.+6      	; 0xa58 <uart_init+0xe>
     a52:	81 30       	cpi	r24, 0x01	; 1
     a54:	c1 f0       	breq	.+48     	; 0xa86 <uart_init+0x3c>
     a56:	2d c0       	rjmp	.+90     	; 0xab2 <uart_init+0x68>
     a58:	86 e0       	ldi	r24, 0x06	; 6
     a5a:	80 93 c2 00 	sts	0x00C2, r24	; 0x8000c2 <__TEXT_REGION_LENGTH__+0x7f80c2>
     a5e:	88 e9       	ldi	r24, 0x98	; 152
     a60:	80 93 c1 00 	sts	0x00C1, r24	; 0x8000c1 <__TEXT_REGION_LENGTH__+0x7f80c1>
     a64:	10 92 c0 00 	sts	0x00C0, r1	; 0x8000c0 <__TEXT_REGION_LENGTH__+0x7f80c0>
     a68:	46 e9       	ldi	r20, 0x96	; 150
     a6a:	64 e1       	ldi	r22, 0x14	; 20
     a6c:	72 e0       	ldi	r23, 0x02	; 2
     a6e:	86 e5       	ldi	r24, 0x56	; 86
     a70:	91 e0       	ldi	r25, 0x01	; 1
     a72:	0e 94 f7 00 	call	0x1ee	; 0x1ee <fifo_init>
     a76:	46 e9       	ldi	r20, 0x96	; 150
     a78:	6e e7       	ldi	r22, 0x7E	; 126
     a7a:	71 e0       	ldi	r23, 0x01	; 1
     a7c:	8e e4       	ldi	r24, 0x4E	; 78
     a7e:	91 e0       	ldi	r25, 0x01	; 1
     a80:	0e 94 f7 00 	call	0x1ee	; 0x1ee <fifo_init>
     a84:	16 c0       	rjmp	.+44     	; 0xab2 <uart_init+0x68>
     a86:	86 e0       	ldi	r24, 0x06	; 6
     a88:	80 93 ca 00 	sts	0x00CA, r24	; 0x8000ca <__TEXT_REGION_LENGTH__+0x7f80ca>
     a8c:	88 e9       	ldi	r24, 0x98	; 152
     a8e:	80 93 c9 00 	sts	0x00C9, r24	; 0x8000c9 <__TEXT_REGION_LENGTH__+0x7f80c9>
     a92:	10 92 c8 00 	sts	0x00C8, r1	; 0x8000c8 <__TEXT_REGION_LENGTH__+0x7f80c8>
     a96:	40 e1       	ldi	r20, 0x10	; 16
     a98:	6e e6       	ldi	r22, 0x6E	; 110
     a9a:	71 e0       	ldi	r23, 0x01	; 1
     a9c:	86 e4       	ldi	r24, 0x46	; 70
     a9e:	91 e0       	ldi	r25, 0x01	; 1
     aa0:	0e 94 f7 00 	call	0x1ee	; 0x1ee <fifo_init>
     aa4:	40 e1       	ldi	r20, 0x10	; 16
     aa6:	6e e5       	ldi	r22, 0x5E	; 94
     aa8:	71 e0       	ldi	r23, 0x01	; 1
     aaa:	8e e3       	ldi	r24, 0x3E	; 62
     aac:	91 e0       	ldi	r25, 0x01	; 1
     aae:	0e 94 f7 00 	call	0x1ee	; 0x1ee <fifo_init>
     ab2:	62 e0       	ldi	r22, 0x02	; 2
     ab4:	8c 2f       	mov	r24, r28
     ab6:	0e 94 06 05 	call	0xa0c	; 0xa0c <uart_set_baudrate>
     aba:	cf 91       	pop	r28
     abc:	08 95       	ret

00000abe <uart_get_byte>:
     abe:	cf 93       	push	r28
     ac0:	df 93       	push	r29
     ac2:	c8 2f       	mov	r28, r24
     ac4:	0e 94 43 04 	call	0x886	; 0x886 <disable_RX_interupt>
     ac8:	ec 2f       	mov	r30, r28
     aca:	f0 e0       	ldi	r31, 0x00	; 0
     acc:	ee 0f       	add	r30, r30
     ace:	ff 1f       	adc	r31, r31
     ad0:	eb 5d       	subi	r30, 0xDB	; 219
     ad2:	fe 4f       	sbci	r31, 0xFE	; 254
     ad4:	80 81       	ld	r24, Z
     ad6:	91 81       	ldd	r25, Z+1	; 0x01
     ad8:	0e 94 26 01 	call	0x24c	; 0x24c <fifo_pop>
     adc:	d8 2f       	mov	r29, r24
     ade:	8c 2f       	mov	r24, r28
     ae0:	0e 94 32 04 	call	0x864	; 0x864 <enable_RX_interupt>
     ae4:	8d 2f       	mov	r24, r29
     ae6:	df 91       	pop	r29
     ae8:	cf 91       	pop	r28
     aea:	08 95       	ret

00000aec <uart_is_rx_buffer_empty>:
}

/*** is_rx_buffer_empty ***/
bool uart_is_rx_buffer_empty(uart_e port){

    return fifo_is_empty(rx_fifo_list[port]);
     aec:	e8 2f       	mov	r30, r24
     aee:	f0 e0       	ldi	r31, 0x00	; 0
     af0:	ee 0f       	add	r30, r30
     af2:	ff 1f       	adc	r31, r31
     af4:	eb 5d       	subi	r30, 0xDB	; 219
     af6:	fe 4f       	sbci	r31, 0xFE	; 254
     af8:	80 81       	ld	r24, Z
     afa:	91 81       	ldd	r25, Z+1	; 0x01
     afc:	0e 94 4c 01 	call	0x298	; 0x298 <fifo_is_empty>
}
     b00:	08 95       	ret

00000b02 <uart_get_string>:

    return byte;
}


void uart_get_string(uart_e port, char* out_buffer, uint8_t buffer_length){
     b02:	df 92       	push	r13
     b04:	ef 92       	push	r14
     b06:	ff 92       	push	r15
     b08:	0f 93       	push	r16
     b0a:	1f 93       	push	r17
     b0c:	cf 93       	push	r28
     b0e:	df 93       	push	r29
     b10:	d8 2f       	mov	r29, r24
     b12:	8b 01       	movw	r16, r22
     b14:	d4 2e       	mov	r13, r20

	uint8_t index = 0;
     b16:	c0 e0       	ldi	r28, 0x00	; 0

	while(uart_is_rx_buffer_empty(port) == FALSE){
     b18:	11 c0       	rjmp	.+34     	; 0xb3c <uart_get_string+0x3a>

		out_buffer[index] = uart_get_byte(port);
     b1a:	78 01       	movw	r14, r16
     b1c:	ec 0e       	add	r14, r28
     b1e:	f1 1c       	adc	r15, r1
     b20:	8d 2f       	mov	r24, r29
     b22:	0e 94 5f 05 	call	0xabe	; 0xabe <uart_get_byte>
     b26:	f7 01       	movw	r30, r14
     b28:	80 83       	st	Z, r24
		index++;
     b2a:	cf 5f       	subi	r28, 0xFF	; 255

		// Si il ne reste de la place que pour le \0
		if(index >= buffer_length - 1){
     b2c:	2c 2f       	mov	r18, r28
     b2e:	30 e0       	ldi	r19, 0x00	; 0
     b30:	8d 2d       	mov	r24, r13
     b32:	90 e0       	ldi	r25, 0x00	; 0
     b34:	01 97       	sbiw	r24, 0x01	; 1
     b36:	28 17       	cp	r18, r24
     b38:	39 07       	cpc	r19, r25
     b3a:	2c f4       	brge	.+10     	; 0xb46 <uart_get_string+0x44>

void uart_get_string(uart_e port, char* out_buffer, uint8_t buffer_length){

	uint8_t index = 0;

	while(uart_is_rx_buffer_empty(port) == FALSE){
     b3c:	8d 2f       	mov	r24, r29
     b3e:	0e 94 76 05 	call	0xaec	; 0xaec <uart_is_rx_buffer_empty>
     b42:	88 23       	and	r24, r24
     b44:	51 f3       	breq	.-44     	; 0xb1a <uart_get_string+0x18>
		}
	}


	// Tr√®s temporaire pour d√©boguer
	if(index == 0){
     b46:	c1 11       	cpse	r28, r1
     b48:	05 c0       	rjmp	.+10     	; 0xb54 <uart_get_string+0x52>

		string_copy(out_buffer, "-vide-");
     b4a:	6e e1       	ldi	r22, 0x1E	; 30
     b4c:	71 e0       	ldi	r23, 0x01	; 1
     b4e:	c8 01       	movw	r24, r16
     b50:	0e 94 b6 05 	call	0xb6c	; 0xb6c <string_copy>
	}

	// On ferme la string
	out_buffer[index] = '\0';
     b54:	f8 01       	movw	r30, r16
     b56:	ec 0f       	add	r30, r28
     b58:	f1 1d       	adc	r31, r1
     b5a:	10 82       	st	Z, r1
}
     b5c:	df 91       	pop	r29
     b5e:	cf 91       	pop	r28
     b60:	1f 91       	pop	r17
     b62:	0f 91       	pop	r16
     b64:	ff 90       	pop	r15
     b66:	ef 90       	pop	r14
     b68:	df 90       	pop	r13
     b6a:	08 95       	ret

00000b6c <string_copy>:
    }

    return length;
}

uint8_t string_copy(char* out_string, const char* in_string){
     b6c:	dc 01       	movw	r26, r24
	
	uint8_t i = 0;
     b6e:	80 e0       	ldi	r24, 0x00	; 0
	
	while(in_string[i] != '\0'){
     b70:	05 c0       	rjmp	.+10     	; 0xb7c <string_copy+0x10>
		
		out_string[i] = in_string[i];
     b72:	fd 01       	movw	r30, r26
     b74:	e2 0f       	add	r30, r18
     b76:	f3 1f       	adc	r31, r19
     b78:	40 83       	st	Z, r20
		i++;
     b7a:	8f 5f       	subi	r24, 0xFF	; 255

uint8_t string_copy(char* out_string, const char* in_string){
	
	uint8_t i = 0;
	
	while(in_string[i] != '\0'){
     b7c:	28 2f       	mov	r18, r24
     b7e:	30 e0       	ldi	r19, 0x00	; 0
     b80:	fb 01       	movw	r30, r22
     b82:	e2 0f       	add	r30, r18
     b84:	f3 1f       	adc	r31, r19
     b86:	40 81       	ld	r20, Z
     b88:	41 11       	cpse	r20, r1
     b8a:	f3 cf       	rjmp	.-26     	; 0xb72 <string_copy+0x6>
		out_string[i] = in_string[i];
		i++;
	}
	
	// Puisque le while juste avant tchoke au \0, il faut le mettre
	out_string[i] = '\0';
     b8c:	fd 01       	movw	r30, r26
     b8e:	e2 0f       	add	r30, r18
     b90:	f3 1f       	adc	r31, r19
     b92:	10 82       	st	Z, r1
	
	return i;
}
     b94:	08 95       	ret

00000b96 <__tablejump2__>:
     b96:	ee 0f       	add	r30, r30
     b98:	ff 1f       	adc	r31, r31
     b9a:	05 90       	lpm	r0, Z+
     b9c:	f4 91       	lpm	r31, Z
     b9e:	e0 2d       	mov	r30, r0
     ba0:	09 94       	ijmp

00000ba2 <sprintf>:
     ba2:	ae e0       	ldi	r26, 0x0E	; 14
     ba4:	b0 e0       	ldi	r27, 0x00	; 0
     ba6:	e7 ed       	ldi	r30, 0xD7	; 215
     ba8:	f5 e0       	ldi	r31, 0x05	; 5
     baa:	0c 94 c6 0b 	jmp	0x178c	; 0x178c <__prologue_saves__+0x1c>
     bae:	0d 89       	ldd	r16, Y+21	; 0x15
     bb0:	1e 89       	ldd	r17, Y+22	; 0x16
     bb2:	86 e0       	ldi	r24, 0x06	; 6
     bb4:	8c 83       	std	Y+4, r24	; 0x04
     bb6:	1a 83       	std	Y+2, r17	; 0x02
     bb8:	09 83       	std	Y+1, r16	; 0x01
     bba:	8f ef       	ldi	r24, 0xFF	; 255
     bbc:	9f e7       	ldi	r25, 0x7F	; 127
     bbe:	9e 83       	std	Y+6, r25	; 0x06
     bc0:	8d 83       	std	Y+5, r24	; 0x05
     bc2:	ae 01       	movw	r20, r28
     bc4:	47 5e       	subi	r20, 0xE7	; 231
     bc6:	5f 4f       	sbci	r21, 0xFF	; 255
     bc8:	6f 89       	ldd	r22, Y+23	; 0x17
     bca:	78 8d       	ldd	r23, Y+24	; 0x18
     bcc:	ce 01       	movw	r24, r28
     bce:	01 96       	adiw	r24, 0x01	; 1
     bd0:	0e 94 0c 06 	call	0xc18	; 0xc18 <vfprintf>
     bd4:	ef 81       	ldd	r30, Y+7	; 0x07
     bd6:	f8 85       	ldd	r31, Y+8	; 0x08
     bd8:	e0 0f       	add	r30, r16
     bda:	f1 1f       	adc	r31, r17
     bdc:	10 82       	st	Z, r1
     bde:	2e 96       	adiw	r28, 0x0e	; 14
     be0:	e4 e0       	ldi	r30, 0x04	; 4
     be2:	0c 94 e2 0b 	jmp	0x17c4	; 0x17c4 <__epilogue_restores__+0x1c>

00000be6 <sscanf>:
     be6:	ae e0       	ldi	r26, 0x0E	; 14
     be8:	b0 e0       	ldi	r27, 0x00	; 0
     bea:	e9 ef       	ldi	r30, 0xF9	; 249
     bec:	f5 e0       	ldi	r31, 0x05	; 5
     bee:	0c 94 c8 0b 	jmp	0x1790	; 0x1790 <__prologue_saves__+0x20>
     bf2:	85 e0       	ldi	r24, 0x05	; 5
     bf4:	8c 83       	std	Y+4, r24	; 0x04
     bf6:	8b 89       	ldd	r24, Y+19	; 0x13
     bf8:	9c 89       	ldd	r25, Y+20	; 0x14
     bfa:	9a 83       	std	Y+2, r25	; 0x02
     bfc:	89 83       	std	Y+1, r24	; 0x01
     bfe:	ae 01       	movw	r20, r28
     c00:	49 5e       	subi	r20, 0xE9	; 233
     c02:	5f 4f       	sbci	r21, 0xFF	; 255
     c04:	6d 89       	ldd	r22, Y+21	; 0x15
     c06:	7e 89       	ldd	r23, Y+22	; 0x16
     c08:	ce 01       	movw	r24, r28
     c0a:	01 96       	adiw	r24, 0x01	; 1
     c0c:	0e 94 89 09 	call	0x1312	; 0x1312 <vfscanf>
     c10:	2e 96       	adiw	r28, 0x0e	; 14
     c12:	e2 e0       	ldi	r30, 0x02	; 2
     c14:	0c 94 e4 0b 	jmp	0x17c8	; 0x17c8 <__epilogue_restores__+0x20>

00000c18 <vfprintf>:
     c18:	ab e0       	ldi	r26, 0x0B	; 11
     c1a:	b0 e0       	ldi	r27, 0x00	; 0
     c1c:	e2 e1       	ldi	r30, 0x12	; 18
     c1e:	f6 e0       	ldi	r31, 0x06	; 6
     c20:	0c 94 b8 0b 	jmp	0x1770	; 0x1770 <__prologue_saves__>
     c24:	6c 01       	movw	r12, r24
     c26:	7b 01       	movw	r14, r22
     c28:	8a 01       	movw	r16, r20
     c2a:	fc 01       	movw	r30, r24
     c2c:	17 82       	std	Z+7, r1	; 0x07
     c2e:	16 82       	std	Z+6, r1	; 0x06
     c30:	83 81       	ldd	r24, Z+3	; 0x03
     c32:	81 ff       	sbrs	r24, 1
     c34:	cc c1       	rjmp	.+920    	; 0xfce <vfprintf+0x3b6>
     c36:	ce 01       	movw	r24, r28
     c38:	01 96       	adiw	r24, 0x01	; 1
     c3a:	3c 01       	movw	r6, r24
     c3c:	f6 01       	movw	r30, r12
     c3e:	93 81       	ldd	r25, Z+3	; 0x03
     c40:	f7 01       	movw	r30, r14
     c42:	93 fd       	sbrc	r25, 3
     c44:	85 91       	lpm	r24, Z+
     c46:	93 ff       	sbrs	r25, 3
     c48:	81 91       	ld	r24, Z+
     c4a:	7f 01       	movw	r14, r30
     c4c:	88 23       	and	r24, r24
     c4e:	09 f4       	brne	.+2      	; 0xc52 <vfprintf+0x3a>
     c50:	ba c1       	rjmp	.+884    	; 0xfc6 <vfprintf+0x3ae>
     c52:	85 32       	cpi	r24, 0x25	; 37
     c54:	39 f4       	brne	.+14     	; 0xc64 <vfprintf+0x4c>
     c56:	93 fd       	sbrc	r25, 3
     c58:	85 91       	lpm	r24, Z+
     c5a:	93 ff       	sbrs	r25, 3
     c5c:	81 91       	ld	r24, Z+
     c5e:	7f 01       	movw	r14, r30
     c60:	85 32       	cpi	r24, 0x25	; 37
     c62:	29 f4       	brne	.+10     	; 0xc6e <vfprintf+0x56>
     c64:	b6 01       	movw	r22, r12
     c66:	90 e0       	ldi	r25, 0x00	; 0
     c68:	0e 94 02 0b 	call	0x1604	; 0x1604 <fputc>
     c6c:	e7 cf       	rjmp	.-50     	; 0xc3c <vfprintf+0x24>
     c6e:	91 2c       	mov	r9, r1
     c70:	21 2c       	mov	r2, r1
     c72:	31 2c       	mov	r3, r1
     c74:	ff e1       	ldi	r31, 0x1F	; 31
     c76:	f3 15       	cp	r31, r3
     c78:	d8 f0       	brcs	.+54     	; 0xcb0 <vfprintf+0x98>
     c7a:	8b 32       	cpi	r24, 0x2B	; 43
     c7c:	79 f0       	breq	.+30     	; 0xc9c <vfprintf+0x84>
     c7e:	38 f4       	brcc	.+14     	; 0xc8e <vfprintf+0x76>
     c80:	80 32       	cpi	r24, 0x20	; 32
     c82:	79 f0       	breq	.+30     	; 0xca2 <vfprintf+0x8a>
     c84:	83 32       	cpi	r24, 0x23	; 35
     c86:	a1 f4       	brne	.+40     	; 0xcb0 <vfprintf+0x98>
     c88:	23 2d       	mov	r18, r3
     c8a:	20 61       	ori	r18, 0x10	; 16
     c8c:	1d c0       	rjmp	.+58     	; 0xcc8 <vfprintf+0xb0>
     c8e:	8d 32       	cpi	r24, 0x2D	; 45
     c90:	61 f0       	breq	.+24     	; 0xcaa <vfprintf+0x92>
     c92:	80 33       	cpi	r24, 0x30	; 48
     c94:	69 f4       	brne	.+26     	; 0xcb0 <vfprintf+0x98>
     c96:	23 2d       	mov	r18, r3
     c98:	21 60       	ori	r18, 0x01	; 1
     c9a:	16 c0       	rjmp	.+44     	; 0xcc8 <vfprintf+0xb0>
     c9c:	83 2d       	mov	r24, r3
     c9e:	82 60       	ori	r24, 0x02	; 2
     ca0:	38 2e       	mov	r3, r24
     ca2:	e3 2d       	mov	r30, r3
     ca4:	e4 60       	ori	r30, 0x04	; 4
     ca6:	3e 2e       	mov	r3, r30
     ca8:	2a c0       	rjmp	.+84     	; 0xcfe <vfprintf+0xe6>
     caa:	f3 2d       	mov	r31, r3
     cac:	f8 60       	ori	r31, 0x08	; 8
     cae:	1d c0       	rjmp	.+58     	; 0xcea <vfprintf+0xd2>
     cb0:	37 fc       	sbrc	r3, 7
     cb2:	2d c0       	rjmp	.+90     	; 0xd0e <vfprintf+0xf6>
     cb4:	20 ed       	ldi	r18, 0xD0	; 208
     cb6:	28 0f       	add	r18, r24
     cb8:	2a 30       	cpi	r18, 0x0A	; 10
     cba:	40 f0       	brcs	.+16     	; 0xccc <vfprintf+0xb4>
     cbc:	8e 32       	cpi	r24, 0x2E	; 46
     cbe:	b9 f4       	brne	.+46     	; 0xcee <vfprintf+0xd6>
     cc0:	36 fc       	sbrc	r3, 6
     cc2:	81 c1       	rjmp	.+770    	; 0xfc6 <vfprintf+0x3ae>
     cc4:	23 2d       	mov	r18, r3
     cc6:	20 64       	ori	r18, 0x40	; 64
     cc8:	32 2e       	mov	r3, r18
     cca:	19 c0       	rjmp	.+50     	; 0xcfe <vfprintf+0xe6>
     ccc:	36 fe       	sbrs	r3, 6
     cce:	06 c0       	rjmp	.+12     	; 0xcdc <vfprintf+0xc4>
     cd0:	8a e0       	ldi	r24, 0x0A	; 10
     cd2:	98 9e       	mul	r9, r24
     cd4:	20 0d       	add	r18, r0
     cd6:	11 24       	eor	r1, r1
     cd8:	92 2e       	mov	r9, r18
     cda:	11 c0       	rjmp	.+34     	; 0xcfe <vfprintf+0xe6>
     cdc:	ea e0       	ldi	r30, 0x0A	; 10
     cde:	2e 9e       	mul	r2, r30
     ce0:	20 0d       	add	r18, r0
     ce2:	11 24       	eor	r1, r1
     ce4:	22 2e       	mov	r2, r18
     ce6:	f3 2d       	mov	r31, r3
     ce8:	f0 62       	ori	r31, 0x20	; 32
     cea:	3f 2e       	mov	r3, r31
     cec:	08 c0       	rjmp	.+16     	; 0xcfe <vfprintf+0xe6>
     cee:	8c 36       	cpi	r24, 0x6C	; 108
     cf0:	21 f4       	brne	.+8      	; 0xcfa <vfprintf+0xe2>
     cf2:	83 2d       	mov	r24, r3
     cf4:	80 68       	ori	r24, 0x80	; 128
     cf6:	38 2e       	mov	r3, r24
     cf8:	02 c0       	rjmp	.+4      	; 0xcfe <vfprintf+0xe6>
     cfa:	88 36       	cpi	r24, 0x68	; 104
     cfc:	41 f4       	brne	.+16     	; 0xd0e <vfprintf+0xf6>
     cfe:	f7 01       	movw	r30, r14
     d00:	93 fd       	sbrc	r25, 3
     d02:	85 91       	lpm	r24, Z+
     d04:	93 ff       	sbrs	r25, 3
     d06:	81 91       	ld	r24, Z+
     d08:	7f 01       	movw	r14, r30
     d0a:	81 11       	cpse	r24, r1
     d0c:	b3 cf       	rjmp	.-154    	; 0xc74 <vfprintf+0x5c>
     d0e:	98 2f       	mov	r25, r24
     d10:	9f 7d       	andi	r25, 0xDF	; 223
     d12:	95 54       	subi	r25, 0x45	; 69
     d14:	93 30       	cpi	r25, 0x03	; 3
     d16:	28 f4       	brcc	.+10     	; 0xd22 <vfprintf+0x10a>
     d18:	0c 5f       	subi	r16, 0xFC	; 252
     d1a:	1f 4f       	sbci	r17, 0xFF	; 255
     d1c:	9f e3       	ldi	r25, 0x3F	; 63
     d1e:	99 83       	std	Y+1, r25	; 0x01
     d20:	0d c0       	rjmp	.+26     	; 0xd3c <vfprintf+0x124>
     d22:	83 36       	cpi	r24, 0x63	; 99
     d24:	31 f0       	breq	.+12     	; 0xd32 <vfprintf+0x11a>
     d26:	83 37       	cpi	r24, 0x73	; 115
     d28:	71 f0       	breq	.+28     	; 0xd46 <vfprintf+0x12e>
     d2a:	83 35       	cpi	r24, 0x53	; 83
     d2c:	09 f0       	breq	.+2      	; 0xd30 <vfprintf+0x118>
     d2e:	59 c0       	rjmp	.+178    	; 0xde2 <vfprintf+0x1ca>
     d30:	21 c0       	rjmp	.+66     	; 0xd74 <vfprintf+0x15c>
     d32:	f8 01       	movw	r30, r16
     d34:	80 81       	ld	r24, Z
     d36:	89 83       	std	Y+1, r24	; 0x01
     d38:	0e 5f       	subi	r16, 0xFE	; 254
     d3a:	1f 4f       	sbci	r17, 0xFF	; 255
     d3c:	88 24       	eor	r8, r8
     d3e:	83 94       	inc	r8
     d40:	91 2c       	mov	r9, r1
     d42:	53 01       	movw	r10, r6
     d44:	13 c0       	rjmp	.+38     	; 0xd6c <vfprintf+0x154>
     d46:	28 01       	movw	r4, r16
     d48:	f2 e0       	ldi	r31, 0x02	; 2
     d4a:	4f 0e       	add	r4, r31
     d4c:	51 1c       	adc	r5, r1
     d4e:	f8 01       	movw	r30, r16
     d50:	a0 80       	ld	r10, Z
     d52:	b1 80       	ldd	r11, Z+1	; 0x01
     d54:	36 fe       	sbrs	r3, 6
     d56:	03 c0       	rjmp	.+6      	; 0xd5e <vfprintf+0x146>
     d58:	69 2d       	mov	r22, r9
     d5a:	70 e0       	ldi	r23, 0x00	; 0
     d5c:	02 c0       	rjmp	.+4      	; 0xd62 <vfprintf+0x14a>
     d5e:	6f ef       	ldi	r22, 0xFF	; 255
     d60:	7f ef       	ldi	r23, 0xFF	; 255
     d62:	c5 01       	movw	r24, r10
     d64:	0e 94 b9 0a 	call	0x1572	; 0x1572 <strnlen>
     d68:	4c 01       	movw	r8, r24
     d6a:	82 01       	movw	r16, r4
     d6c:	f3 2d       	mov	r31, r3
     d6e:	ff 77       	andi	r31, 0x7F	; 127
     d70:	3f 2e       	mov	r3, r31
     d72:	16 c0       	rjmp	.+44     	; 0xda0 <vfprintf+0x188>
     d74:	28 01       	movw	r4, r16
     d76:	22 e0       	ldi	r18, 0x02	; 2
     d78:	42 0e       	add	r4, r18
     d7a:	51 1c       	adc	r5, r1
     d7c:	f8 01       	movw	r30, r16
     d7e:	a0 80       	ld	r10, Z
     d80:	b1 80       	ldd	r11, Z+1	; 0x01
     d82:	36 fe       	sbrs	r3, 6
     d84:	03 c0       	rjmp	.+6      	; 0xd8c <vfprintf+0x174>
     d86:	69 2d       	mov	r22, r9
     d88:	70 e0       	ldi	r23, 0x00	; 0
     d8a:	02 c0       	rjmp	.+4      	; 0xd90 <vfprintf+0x178>
     d8c:	6f ef       	ldi	r22, 0xFF	; 255
     d8e:	7f ef       	ldi	r23, 0xFF	; 255
     d90:	c5 01       	movw	r24, r10
     d92:	0e 94 ae 0a 	call	0x155c	; 0x155c <strnlen_P>
     d96:	4c 01       	movw	r8, r24
     d98:	f3 2d       	mov	r31, r3
     d9a:	f0 68       	ori	r31, 0x80	; 128
     d9c:	3f 2e       	mov	r3, r31
     d9e:	82 01       	movw	r16, r4
     da0:	33 fc       	sbrc	r3, 3
     da2:	1b c0       	rjmp	.+54     	; 0xdda <vfprintf+0x1c2>
     da4:	82 2d       	mov	r24, r2
     da6:	90 e0       	ldi	r25, 0x00	; 0
     da8:	88 16       	cp	r8, r24
     daa:	99 06       	cpc	r9, r25
     dac:	b0 f4       	brcc	.+44     	; 0xdda <vfprintf+0x1c2>
     dae:	b6 01       	movw	r22, r12
     db0:	80 e2       	ldi	r24, 0x20	; 32
     db2:	90 e0       	ldi	r25, 0x00	; 0
     db4:	0e 94 02 0b 	call	0x1604	; 0x1604 <fputc>
     db8:	2a 94       	dec	r2
     dba:	f4 cf       	rjmp	.-24     	; 0xda4 <vfprintf+0x18c>
     dbc:	f5 01       	movw	r30, r10
     dbe:	37 fc       	sbrc	r3, 7
     dc0:	85 91       	lpm	r24, Z+
     dc2:	37 fe       	sbrs	r3, 7
     dc4:	81 91       	ld	r24, Z+
     dc6:	5f 01       	movw	r10, r30
     dc8:	b6 01       	movw	r22, r12
     dca:	90 e0       	ldi	r25, 0x00	; 0
     dcc:	0e 94 02 0b 	call	0x1604	; 0x1604 <fputc>
     dd0:	21 10       	cpse	r2, r1
     dd2:	2a 94       	dec	r2
     dd4:	21 e0       	ldi	r18, 0x01	; 1
     dd6:	82 1a       	sub	r8, r18
     dd8:	91 08       	sbc	r9, r1
     dda:	81 14       	cp	r8, r1
     ddc:	91 04       	cpc	r9, r1
     dde:	71 f7       	brne	.-36     	; 0xdbc <vfprintf+0x1a4>
     de0:	e8 c0       	rjmp	.+464    	; 0xfb2 <vfprintf+0x39a>
     de2:	84 36       	cpi	r24, 0x64	; 100
     de4:	11 f0       	breq	.+4      	; 0xdea <vfprintf+0x1d2>
     de6:	89 36       	cpi	r24, 0x69	; 105
     de8:	41 f5       	brne	.+80     	; 0xe3a <vfprintf+0x222>
     dea:	f8 01       	movw	r30, r16
     dec:	37 fe       	sbrs	r3, 7
     dee:	07 c0       	rjmp	.+14     	; 0xdfe <vfprintf+0x1e6>
     df0:	60 81       	ld	r22, Z
     df2:	71 81       	ldd	r23, Z+1	; 0x01
     df4:	82 81       	ldd	r24, Z+2	; 0x02
     df6:	93 81       	ldd	r25, Z+3	; 0x03
     df8:	0c 5f       	subi	r16, 0xFC	; 252
     dfa:	1f 4f       	sbci	r17, 0xFF	; 255
     dfc:	08 c0       	rjmp	.+16     	; 0xe0e <vfprintf+0x1f6>
     dfe:	60 81       	ld	r22, Z
     e00:	71 81       	ldd	r23, Z+1	; 0x01
     e02:	07 2e       	mov	r0, r23
     e04:	00 0c       	add	r0, r0
     e06:	88 0b       	sbc	r24, r24
     e08:	99 0b       	sbc	r25, r25
     e0a:	0e 5f       	subi	r16, 0xFE	; 254
     e0c:	1f 4f       	sbci	r17, 0xFF	; 255
     e0e:	f3 2d       	mov	r31, r3
     e10:	ff 76       	andi	r31, 0x6F	; 111
     e12:	3f 2e       	mov	r3, r31
     e14:	97 ff       	sbrs	r25, 7
     e16:	09 c0       	rjmp	.+18     	; 0xe2a <vfprintf+0x212>
     e18:	90 95       	com	r25
     e1a:	80 95       	com	r24
     e1c:	70 95       	com	r23
     e1e:	61 95       	neg	r22
     e20:	7f 4f       	sbci	r23, 0xFF	; 255
     e22:	8f 4f       	sbci	r24, 0xFF	; 255
     e24:	9f 4f       	sbci	r25, 0xFF	; 255
     e26:	f0 68       	ori	r31, 0x80	; 128
     e28:	3f 2e       	mov	r3, r31
     e2a:	2a e0       	ldi	r18, 0x0A	; 10
     e2c:	30 e0       	ldi	r19, 0x00	; 0
     e2e:	a3 01       	movw	r20, r6
     e30:	0e 94 57 0b 	call	0x16ae	; 0x16ae <__ultoa_invert>
     e34:	88 2e       	mov	r8, r24
     e36:	86 18       	sub	r8, r6
     e38:	45 c0       	rjmp	.+138    	; 0xec4 <vfprintf+0x2ac>
     e3a:	85 37       	cpi	r24, 0x75	; 117
     e3c:	31 f4       	brne	.+12     	; 0xe4a <vfprintf+0x232>
     e3e:	23 2d       	mov	r18, r3
     e40:	2f 7e       	andi	r18, 0xEF	; 239
     e42:	b2 2e       	mov	r11, r18
     e44:	2a e0       	ldi	r18, 0x0A	; 10
     e46:	30 e0       	ldi	r19, 0x00	; 0
     e48:	25 c0       	rjmp	.+74     	; 0xe94 <vfprintf+0x27c>
     e4a:	93 2d       	mov	r25, r3
     e4c:	99 7f       	andi	r25, 0xF9	; 249
     e4e:	b9 2e       	mov	r11, r25
     e50:	8f 36       	cpi	r24, 0x6F	; 111
     e52:	c1 f0       	breq	.+48     	; 0xe84 <vfprintf+0x26c>
     e54:	18 f4       	brcc	.+6      	; 0xe5c <vfprintf+0x244>
     e56:	88 35       	cpi	r24, 0x58	; 88
     e58:	79 f0       	breq	.+30     	; 0xe78 <vfprintf+0x260>
     e5a:	b5 c0       	rjmp	.+362    	; 0xfc6 <vfprintf+0x3ae>
     e5c:	80 37       	cpi	r24, 0x70	; 112
     e5e:	19 f0       	breq	.+6      	; 0xe66 <vfprintf+0x24e>
     e60:	88 37       	cpi	r24, 0x78	; 120
     e62:	21 f0       	breq	.+8      	; 0xe6c <vfprintf+0x254>
     e64:	b0 c0       	rjmp	.+352    	; 0xfc6 <vfprintf+0x3ae>
     e66:	e9 2f       	mov	r30, r25
     e68:	e0 61       	ori	r30, 0x10	; 16
     e6a:	be 2e       	mov	r11, r30
     e6c:	b4 fe       	sbrs	r11, 4
     e6e:	0d c0       	rjmp	.+26     	; 0xe8a <vfprintf+0x272>
     e70:	fb 2d       	mov	r31, r11
     e72:	f4 60       	ori	r31, 0x04	; 4
     e74:	bf 2e       	mov	r11, r31
     e76:	09 c0       	rjmp	.+18     	; 0xe8a <vfprintf+0x272>
     e78:	34 fe       	sbrs	r3, 4
     e7a:	0a c0       	rjmp	.+20     	; 0xe90 <vfprintf+0x278>
     e7c:	29 2f       	mov	r18, r25
     e7e:	26 60       	ori	r18, 0x06	; 6
     e80:	b2 2e       	mov	r11, r18
     e82:	06 c0       	rjmp	.+12     	; 0xe90 <vfprintf+0x278>
     e84:	28 e0       	ldi	r18, 0x08	; 8
     e86:	30 e0       	ldi	r19, 0x00	; 0
     e88:	05 c0       	rjmp	.+10     	; 0xe94 <vfprintf+0x27c>
     e8a:	20 e1       	ldi	r18, 0x10	; 16
     e8c:	30 e0       	ldi	r19, 0x00	; 0
     e8e:	02 c0       	rjmp	.+4      	; 0xe94 <vfprintf+0x27c>
     e90:	20 e1       	ldi	r18, 0x10	; 16
     e92:	32 e0       	ldi	r19, 0x02	; 2
     e94:	f8 01       	movw	r30, r16
     e96:	b7 fe       	sbrs	r11, 7
     e98:	07 c0       	rjmp	.+14     	; 0xea8 <vfprintf+0x290>
     e9a:	60 81       	ld	r22, Z
     e9c:	71 81       	ldd	r23, Z+1	; 0x01
     e9e:	82 81       	ldd	r24, Z+2	; 0x02
     ea0:	93 81       	ldd	r25, Z+3	; 0x03
     ea2:	0c 5f       	subi	r16, 0xFC	; 252
     ea4:	1f 4f       	sbci	r17, 0xFF	; 255
     ea6:	06 c0       	rjmp	.+12     	; 0xeb4 <vfprintf+0x29c>
     ea8:	60 81       	ld	r22, Z
     eaa:	71 81       	ldd	r23, Z+1	; 0x01
     eac:	80 e0       	ldi	r24, 0x00	; 0
     eae:	90 e0       	ldi	r25, 0x00	; 0
     eb0:	0e 5f       	subi	r16, 0xFE	; 254
     eb2:	1f 4f       	sbci	r17, 0xFF	; 255
     eb4:	a3 01       	movw	r20, r6
     eb6:	0e 94 57 0b 	call	0x16ae	; 0x16ae <__ultoa_invert>
     eba:	88 2e       	mov	r8, r24
     ebc:	86 18       	sub	r8, r6
     ebe:	fb 2d       	mov	r31, r11
     ec0:	ff 77       	andi	r31, 0x7F	; 127
     ec2:	3f 2e       	mov	r3, r31
     ec4:	36 fe       	sbrs	r3, 6
     ec6:	0d c0       	rjmp	.+26     	; 0xee2 <vfprintf+0x2ca>
     ec8:	23 2d       	mov	r18, r3
     eca:	2e 7f       	andi	r18, 0xFE	; 254
     ecc:	a2 2e       	mov	r10, r18
     ece:	89 14       	cp	r8, r9
     ed0:	58 f4       	brcc	.+22     	; 0xee8 <vfprintf+0x2d0>
     ed2:	34 fe       	sbrs	r3, 4
     ed4:	0b c0       	rjmp	.+22     	; 0xeec <vfprintf+0x2d4>
     ed6:	32 fc       	sbrc	r3, 2
     ed8:	09 c0       	rjmp	.+18     	; 0xeec <vfprintf+0x2d4>
     eda:	83 2d       	mov	r24, r3
     edc:	8e 7e       	andi	r24, 0xEE	; 238
     ede:	a8 2e       	mov	r10, r24
     ee0:	05 c0       	rjmp	.+10     	; 0xeec <vfprintf+0x2d4>
     ee2:	b8 2c       	mov	r11, r8
     ee4:	a3 2c       	mov	r10, r3
     ee6:	03 c0       	rjmp	.+6      	; 0xeee <vfprintf+0x2d6>
     ee8:	b8 2c       	mov	r11, r8
     eea:	01 c0       	rjmp	.+2      	; 0xeee <vfprintf+0x2d6>
     eec:	b9 2c       	mov	r11, r9
     eee:	a4 fe       	sbrs	r10, 4
     ef0:	0f c0       	rjmp	.+30     	; 0xf10 <vfprintf+0x2f8>
     ef2:	fe 01       	movw	r30, r28
     ef4:	e8 0d       	add	r30, r8
     ef6:	f1 1d       	adc	r31, r1
     ef8:	80 81       	ld	r24, Z
     efa:	80 33       	cpi	r24, 0x30	; 48
     efc:	21 f4       	brne	.+8      	; 0xf06 <vfprintf+0x2ee>
     efe:	9a 2d       	mov	r25, r10
     f00:	99 7e       	andi	r25, 0xE9	; 233
     f02:	a9 2e       	mov	r10, r25
     f04:	09 c0       	rjmp	.+18     	; 0xf18 <vfprintf+0x300>
     f06:	a2 fe       	sbrs	r10, 2
     f08:	06 c0       	rjmp	.+12     	; 0xf16 <vfprintf+0x2fe>
     f0a:	b3 94       	inc	r11
     f0c:	b3 94       	inc	r11
     f0e:	04 c0       	rjmp	.+8      	; 0xf18 <vfprintf+0x300>
     f10:	8a 2d       	mov	r24, r10
     f12:	86 78       	andi	r24, 0x86	; 134
     f14:	09 f0       	breq	.+2      	; 0xf18 <vfprintf+0x300>
     f16:	b3 94       	inc	r11
     f18:	a3 fc       	sbrc	r10, 3
     f1a:	11 c0       	rjmp	.+34     	; 0xf3e <vfprintf+0x326>
     f1c:	a0 fe       	sbrs	r10, 0
     f1e:	06 c0       	rjmp	.+12     	; 0xf2c <vfprintf+0x314>
     f20:	b2 14       	cp	r11, r2
     f22:	88 f4       	brcc	.+34     	; 0xf46 <vfprintf+0x32e>
     f24:	28 0c       	add	r2, r8
     f26:	92 2c       	mov	r9, r2
     f28:	9b 18       	sub	r9, r11
     f2a:	0e c0       	rjmp	.+28     	; 0xf48 <vfprintf+0x330>
     f2c:	b2 14       	cp	r11, r2
     f2e:	60 f4       	brcc	.+24     	; 0xf48 <vfprintf+0x330>
     f30:	b6 01       	movw	r22, r12
     f32:	80 e2       	ldi	r24, 0x20	; 32
     f34:	90 e0       	ldi	r25, 0x00	; 0
     f36:	0e 94 02 0b 	call	0x1604	; 0x1604 <fputc>
     f3a:	b3 94       	inc	r11
     f3c:	f7 cf       	rjmp	.-18     	; 0xf2c <vfprintf+0x314>
     f3e:	b2 14       	cp	r11, r2
     f40:	18 f4       	brcc	.+6      	; 0xf48 <vfprintf+0x330>
     f42:	2b 18       	sub	r2, r11
     f44:	02 c0       	rjmp	.+4      	; 0xf4a <vfprintf+0x332>
     f46:	98 2c       	mov	r9, r8
     f48:	21 2c       	mov	r2, r1
     f4a:	a4 fe       	sbrs	r10, 4
     f4c:	10 c0       	rjmp	.+32     	; 0xf6e <vfprintf+0x356>
     f4e:	b6 01       	movw	r22, r12
     f50:	80 e3       	ldi	r24, 0x30	; 48
     f52:	90 e0       	ldi	r25, 0x00	; 0
     f54:	0e 94 02 0b 	call	0x1604	; 0x1604 <fputc>
     f58:	a2 fe       	sbrs	r10, 2
     f5a:	17 c0       	rjmp	.+46     	; 0xf8a <vfprintf+0x372>
     f5c:	a1 fc       	sbrc	r10, 1
     f5e:	03 c0       	rjmp	.+6      	; 0xf66 <vfprintf+0x34e>
     f60:	88 e7       	ldi	r24, 0x78	; 120
     f62:	90 e0       	ldi	r25, 0x00	; 0
     f64:	02 c0       	rjmp	.+4      	; 0xf6a <vfprintf+0x352>
     f66:	88 e5       	ldi	r24, 0x58	; 88
     f68:	90 e0       	ldi	r25, 0x00	; 0
     f6a:	b6 01       	movw	r22, r12
     f6c:	0c c0       	rjmp	.+24     	; 0xf86 <vfprintf+0x36e>
     f6e:	8a 2d       	mov	r24, r10
     f70:	86 78       	andi	r24, 0x86	; 134
     f72:	59 f0       	breq	.+22     	; 0xf8a <vfprintf+0x372>
     f74:	a1 fe       	sbrs	r10, 1
     f76:	02 c0       	rjmp	.+4      	; 0xf7c <vfprintf+0x364>
     f78:	8b e2       	ldi	r24, 0x2B	; 43
     f7a:	01 c0       	rjmp	.+2      	; 0xf7e <vfprintf+0x366>
     f7c:	80 e2       	ldi	r24, 0x20	; 32
     f7e:	a7 fc       	sbrc	r10, 7
     f80:	8d e2       	ldi	r24, 0x2D	; 45
     f82:	b6 01       	movw	r22, r12
     f84:	90 e0       	ldi	r25, 0x00	; 0
     f86:	0e 94 02 0b 	call	0x1604	; 0x1604 <fputc>
     f8a:	89 14       	cp	r8, r9
     f8c:	38 f4       	brcc	.+14     	; 0xf9c <vfprintf+0x384>
     f8e:	b6 01       	movw	r22, r12
     f90:	80 e3       	ldi	r24, 0x30	; 48
     f92:	90 e0       	ldi	r25, 0x00	; 0
     f94:	0e 94 02 0b 	call	0x1604	; 0x1604 <fputc>
     f98:	9a 94       	dec	r9
     f9a:	f7 cf       	rjmp	.-18     	; 0xf8a <vfprintf+0x372>
     f9c:	8a 94       	dec	r8
     f9e:	f3 01       	movw	r30, r6
     fa0:	e8 0d       	add	r30, r8
     fa2:	f1 1d       	adc	r31, r1
     fa4:	80 81       	ld	r24, Z
     fa6:	b6 01       	movw	r22, r12
     fa8:	90 e0       	ldi	r25, 0x00	; 0
     faa:	0e 94 02 0b 	call	0x1604	; 0x1604 <fputc>
     fae:	81 10       	cpse	r8, r1
     fb0:	f5 cf       	rjmp	.-22     	; 0xf9c <vfprintf+0x384>
     fb2:	22 20       	and	r2, r2
     fb4:	09 f4       	brne	.+2      	; 0xfb8 <vfprintf+0x3a0>
     fb6:	42 ce       	rjmp	.-892    	; 0xc3c <vfprintf+0x24>
     fb8:	b6 01       	movw	r22, r12
     fba:	80 e2       	ldi	r24, 0x20	; 32
     fbc:	90 e0       	ldi	r25, 0x00	; 0
     fbe:	0e 94 02 0b 	call	0x1604	; 0x1604 <fputc>
     fc2:	2a 94       	dec	r2
     fc4:	f6 cf       	rjmp	.-20     	; 0xfb2 <vfprintf+0x39a>
     fc6:	f6 01       	movw	r30, r12
     fc8:	86 81       	ldd	r24, Z+6	; 0x06
     fca:	97 81       	ldd	r25, Z+7	; 0x07
     fcc:	02 c0       	rjmp	.+4      	; 0xfd2 <vfprintf+0x3ba>
     fce:	8f ef       	ldi	r24, 0xFF	; 255
     fd0:	9f ef       	ldi	r25, 0xFF	; 255
     fd2:	2b 96       	adiw	r28, 0x0b	; 11
     fd4:	e2 e1       	ldi	r30, 0x12	; 18
     fd6:	0c 94 d4 0b 	jmp	0x17a8	; 0x17a8 <__epilogue_restores__>

00000fda <putval>:
     fda:	20 fd       	sbrc	r18, 0
     fdc:	09 c0       	rjmp	.+18     	; 0xff0 <putval+0x16>
     fde:	fc 01       	movw	r30, r24
     fe0:	23 fd       	sbrc	r18, 3
     fe2:	05 c0       	rjmp	.+10     	; 0xfee <putval+0x14>
     fe4:	22 ff       	sbrs	r18, 2
     fe6:	02 c0       	rjmp	.+4      	; 0xfec <putval+0x12>
     fe8:	73 83       	std	Z+3, r23	; 0x03
     fea:	62 83       	std	Z+2, r22	; 0x02
     fec:	51 83       	std	Z+1, r21	; 0x01
     fee:	40 83       	st	Z, r20
     ff0:	08 95       	ret

00000ff2 <mulacc>:
     ff2:	44 fd       	sbrc	r20, 4
     ff4:	17 c0       	rjmp	.+46     	; 0x1024 <mulacc+0x32>
     ff6:	46 fd       	sbrc	r20, 6
     ff8:	17 c0       	rjmp	.+46     	; 0x1028 <mulacc+0x36>
     ffa:	ab 01       	movw	r20, r22
     ffc:	bc 01       	movw	r22, r24
     ffe:	da 01       	movw	r26, r20
    1000:	fb 01       	movw	r30, r22
    1002:	aa 0f       	add	r26, r26
    1004:	bb 1f       	adc	r27, r27
    1006:	ee 1f       	adc	r30, r30
    1008:	ff 1f       	adc	r31, r31
    100a:	10 94       	com	r1
    100c:	d1 f7       	brne	.-12     	; 0x1002 <mulacc+0x10>
    100e:	4a 0f       	add	r20, r26
    1010:	5b 1f       	adc	r21, r27
    1012:	6e 1f       	adc	r22, r30
    1014:	7f 1f       	adc	r23, r31
    1016:	cb 01       	movw	r24, r22
    1018:	ba 01       	movw	r22, r20
    101a:	66 0f       	add	r22, r22
    101c:	77 1f       	adc	r23, r23
    101e:	88 1f       	adc	r24, r24
    1020:	99 1f       	adc	r25, r25
    1022:	09 c0       	rjmp	.+18     	; 0x1036 <mulacc+0x44>
    1024:	33 e0       	ldi	r19, 0x03	; 3
    1026:	01 c0       	rjmp	.+2      	; 0x102a <mulacc+0x38>
    1028:	34 e0       	ldi	r19, 0x04	; 4
    102a:	66 0f       	add	r22, r22
    102c:	77 1f       	adc	r23, r23
    102e:	88 1f       	adc	r24, r24
    1030:	99 1f       	adc	r25, r25
    1032:	31 50       	subi	r19, 0x01	; 1
    1034:	d1 f7       	brne	.-12     	; 0x102a <mulacc+0x38>
    1036:	62 0f       	add	r22, r18
    1038:	71 1d       	adc	r23, r1
    103a:	81 1d       	adc	r24, r1
    103c:	91 1d       	adc	r25, r1
    103e:	08 95       	ret

00001040 <skip_spaces>:
    1040:	0f 93       	push	r16
    1042:	1f 93       	push	r17
    1044:	cf 93       	push	r28
    1046:	df 93       	push	r29
    1048:	8c 01       	movw	r16, r24
    104a:	c8 01       	movw	r24, r16
    104c:	0e 94 c4 0a 	call	0x1588	; 0x1588 <fgetc>
    1050:	ec 01       	movw	r28, r24
    1052:	97 fd       	sbrc	r25, 7
    1054:	08 c0       	rjmp	.+16     	; 0x1066 <skip_spaces+0x26>
    1056:	0e 94 9a 0a 	call	0x1534	; 0x1534 <isspace>
    105a:	89 2b       	or	r24, r25
    105c:	b1 f7       	brne	.-20     	; 0x104a <skip_spaces+0xa>
    105e:	b8 01       	movw	r22, r16
    1060:	ce 01       	movw	r24, r28
    1062:	0e 94 3e 0b 	call	0x167c	; 0x167c <ungetc>
    1066:	ce 01       	movw	r24, r28
    1068:	df 91       	pop	r29
    106a:	cf 91       	pop	r28
    106c:	1f 91       	pop	r17
    106e:	0f 91       	pop	r16
    1070:	08 95       	ret

00001072 <conv_int>:
    1072:	8f 92       	push	r8
    1074:	9f 92       	push	r9
    1076:	af 92       	push	r10
    1078:	bf 92       	push	r11
    107a:	ef 92       	push	r14
    107c:	ff 92       	push	r15
    107e:	0f 93       	push	r16
    1080:	1f 93       	push	r17
    1082:	cf 93       	push	r28
    1084:	df 93       	push	r29
    1086:	8c 01       	movw	r16, r24
    1088:	d6 2f       	mov	r29, r22
    108a:	7a 01       	movw	r14, r20
    108c:	b2 2e       	mov	r11, r18
    108e:	0e 94 c4 0a 	call	0x1588	; 0x1588 <fgetc>
    1092:	9c 01       	movw	r18, r24
    1094:	33 27       	eor	r19, r19
    1096:	2b 32       	cpi	r18, 0x2B	; 43
    1098:	31 05       	cpc	r19, r1
    109a:	31 f0       	breq	.+12     	; 0x10a8 <conv_int+0x36>
    109c:	2d 32       	cpi	r18, 0x2D	; 45
    109e:	31 05       	cpc	r19, r1
    10a0:	61 f4       	brne	.+24     	; 0x10ba <conv_int+0x48>
    10a2:	8b 2d       	mov	r24, r11
    10a4:	80 68       	ori	r24, 0x80	; 128
    10a6:	b8 2e       	mov	r11, r24
    10a8:	d1 50       	subi	r29, 0x01	; 1
    10aa:	11 f4       	brne	.+4      	; 0x10b0 <conv_int+0x3e>
    10ac:	80 e0       	ldi	r24, 0x00	; 0
    10ae:	68 c0       	rjmp	.+208    	; 0x1180 <conv_int+0x10e>
    10b0:	c8 01       	movw	r24, r16
    10b2:	0e 94 c4 0a 	call	0x1588	; 0x1588 <fgetc>
    10b6:	97 fd       	sbrc	r25, 7
    10b8:	f9 cf       	rjmp	.-14     	; 0x10ac <conv_int+0x3a>
    10ba:	cb 2d       	mov	r28, r11
    10bc:	cd 7f       	andi	r28, 0xFD	; 253
    10be:	2b 2d       	mov	r18, r11
    10c0:	20 73       	andi	r18, 0x30	; 48
    10c2:	09 f5       	brne	.+66     	; 0x1106 <conv_int+0x94>
    10c4:	80 33       	cpi	r24, 0x30	; 48
    10c6:	f9 f4       	brne	.+62     	; 0x1106 <conv_int+0x94>
    10c8:	aa 24       	eor	r10, r10
    10ca:	aa 94       	dec	r10
    10cc:	ad 0e       	add	r10, r29
    10ce:	09 f4       	brne	.+2      	; 0x10d2 <conv_int+0x60>
    10d0:	43 c0       	rjmp	.+134    	; 0x1158 <conv_int+0xe6>
    10d2:	c8 01       	movw	r24, r16
    10d4:	0e 94 c4 0a 	call	0x1588	; 0x1588 <fgetc>
    10d8:	97 fd       	sbrc	r25, 7
    10da:	3e c0       	rjmp	.+124    	; 0x1158 <conv_int+0xe6>
    10dc:	9c 01       	movw	r18, r24
    10de:	2f 7d       	andi	r18, 0xDF	; 223
    10e0:	33 27       	eor	r19, r19
    10e2:	28 35       	cpi	r18, 0x58	; 88
    10e4:	31 05       	cpc	r19, r1
    10e6:	49 f4       	brne	.+18     	; 0x10fa <conv_int+0x88>
    10e8:	c2 64       	ori	r28, 0x42	; 66
    10ea:	d2 50       	subi	r29, 0x02	; 2
    10ec:	a9 f1       	breq	.+106    	; 0x1158 <conv_int+0xe6>
    10ee:	c8 01       	movw	r24, r16
    10f0:	0e 94 c4 0a 	call	0x1588	; 0x1588 <fgetc>
    10f4:	97 ff       	sbrs	r25, 7
    10f6:	07 c0       	rjmp	.+14     	; 0x1106 <conv_int+0x94>
    10f8:	2f c0       	rjmp	.+94     	; 0x1158 <conv_int+0xe6>
    10fa:	b6 fe       	sbrs	r11, 6
    10fc:	02 c0       	rjmp	.+4      	; 0x1102 <conv_int+0x90>
    10fe:	c2 60       	ori	r28, 0x02	; 2
    1100:	01 c0       	rjmp	.+2      	; 0x1104 <conv_int+0x92>
    1102:	c2 61       	ori	r28, 0x12	; 18
    1104:	da 2d       	mov	r29, r10
    1106:	81 2c       	mov	r8, r1
    1108:	91 2c       	mov	r9, r1
    110a:	54 01       	movw	r10, r8
    110c:	20 ed       	ldi	r18, 0xD0	; 208
    110e:	28 0f       	add	r18, r24
    1110:	28 30       	cpi	r18, 0x08	; 8
    1112:	80 f0       	brcs	.+32     	; 0x1134 <conv_int+0xc2>
    1114:	c4 ff       	sbrs	r28, 4
    1116:	04 c0       	rjmp	.+8      	; 0x1120 <conv_int+0xae>
    1118:	b8 01       	movw	r22, r16
    111a:	0e 94 3e 0b 	call	0x167c	; 0x167c <ungetc>
    111e:	19 c0       	rjmp	.+50     	; 0x1152 <conv_int+0xe0>
    1120:	2a 30       	cpi	r18, 0x0A	; 10
    1122:	40 f0       	brcs	.+16     	; 0x1134 <conv_int+0xc2>
    1124:	c6 ff       	sbrs	r28, 6
    1126:	f8 cf       	rjmp	.-16     	; 0x1118 <conv_int+0xa6>
    1128:	2f 7d       	andi	r18, 0xDF	; 223
    112a:	3f ee       	ldi	r19, 0xEF	; 239
    112c:	32 0f       	add	r19, r18
    112e:	36 30       	cpi	r19, 0x06	; 6
    1130:	98 f7       	brcc	.-26     	; 0x1118 <conv_int+0xa6>
    1132:	27 50       	subi	r18, 0x07	; 7
    1134:	4c 2f       	mov	r20, r28
    1136:	c5 01       	movw	r24, r10
    1138:	b4 01       	movw	r22, r8
    113a:	0e 94 f9 07 	call	0xff2	; 0xff2 <mulacc>
    113e:	4b 01       	movw	r8, r22
    1140:	5c 01       	movw	r10, r24
    1142:	c2 60       	ori	r28, 0x02	; 2
    1144:	d1 50       	subi	r29, 0x01	; 1
    1146:	59 f0       	breq	.+22     	; 0x115e <conv_int+0xec>
    1148:	c8 01       	movw	r24, r16
    114a:	0e 94 c4 0a 	call	0x1588	; 0x1588 <fgetc>
    114e:	97 ff       	sbrs	r25, 7
    1150:	dd cf       	rjmp	.-70     	; 0x110c <conv_int+0x9a>
    1152:	c1 fd       	sbrc	r28, 1
    1154:	04 c0       	rjmp	.+8      	; 0x115e <conv_int+0xec>
    1156:	aa cf       	rjmp	.-172    	; 0x10ac <conv_int+0x3a>
    1158:	81 2c       	mov	r8, r1
    115a:	91 2c       	mov	r9, r1
    115c:	54 01       	movw	r10, r8
    115e:	c7 ff       	sbrs	r28, 7
    1160:	08 c0       	rjmp	.+16     	; 0x1172 <conv_int+0x100>
    1162:	b0 94       	com	r11
    1164:	a0 94       	com	r10
    1166:	90 94       	com	r9
    1168:	80 94       	com	r8
    116a:	81 1c       	adc	r8, r1
    116c:	91 1c       	adc	r9, r1
    116e:	a1 1c       	adc	r10, r1
    1170:	b1 1c       	adc	r11, r1
    1172:	2c 2f       	mov	r18, r28
    1174:	b5 01       	movw	r22, r10
    1176:	a4 01       	movw	r20, r8
    1178:	c7 01       	movw	r24, r14
    117a:	0e 94 ed 07 	call	0xfda	; 0xfda <putval>
    117e:	81 e0       	ldi	r24, 0x01	; 1
    1180:	df 91       	pop	r29
    1182:	cf 91       	pop	r28
    1184:	1f 91       	pop	r17
    1186:	0f 91       	pop	r16
    1188:	ff 90       	pop	r15
    118a:	ef 90       	pop	r14
    118c:	bf 90       	pop	r11
    118e:	af 90       	pop	r10
    1190:	9f 90       	pop	r9
    1192:	8f 90       	pop	r8
    1194:	08 95       	ret

00001196 <conv_brk>:
    1196:	a0 e2       	ldi	r26, 0x20	; 32
    1198:	b0 e0       	ldi	r27, 0x00	; 0
    119a:	e1 ed       	ldi	r30, 0xD1	; 209
    119c:	f8 e0       	ldi	r31, 0x08	; 8
    119e:	0c 94 bb 0b 	jmp	0x1776	; 0x1776 <__prologue_saves__+0x6>
    11a2:	5c 01       	movw	r10, r24
    11a4:	96 2e       	mov	r9, r22
    11a6:	7a 01       	movw	r14, r20
    11a8:	f9 01       	movw	r30, r18
    11aa:	8e 01       	movw	r16, r28
    11ac:	0f 5f       	subi	r16, 0xFF	; 255
    11ae:	1f 4f       	sbci	r17, 0xFF	; 255
    11b0:	68 01       	movw	r12, r16
    11b2:	80 e2       	ldi	r24, 0x20	; 32
    11b4:	d8 01       	movw	r26, r16
    11b6:	1d 92       	st	X+, r1
    11b8:	8a 95       	dec	r24
    11ba:	e9 f7       	brne	.-6      	; 0x11b6 <conv_brk+0x20>
    11bc:	d5 01       	movw	r26, r10
    11be:	13 96       	adiw	r26, 0x03	; 3
    11c0:	8c 90       	ld	r8, X
    11c2:	80 e0       	ldi	r24, 0x00	; 0
    11c4:	90 e0       	ldi	r25, 0x00	; 0
    11c6:	61 2c       	mov	r6, r1
    11c8:	71 2c       	mov	r7, r1
    11ca:	30 e0       	ldi	r19, 0x00	; 0
    11cc:	61 e0       	ldi	r22, 0x01	; 1
    11ce:	70 e0       	ldi	r23, 0x00	; 0
    11d0:	83 fc       	sbrc	r8, 3
    11d2:	25 91       	lpm	r18, Z+
    11d4:	83 fe       	sbrs	r8, 3
    11d6:	21 91       	ld	r18, Z+
    11d8:	8f 01       	movw	r16, r30
    11da:	52 2e       	mov	r5, r18
    11dc:	21 11       	cpse	r18, r1
    11de:	03 c0       	rjmp	.+6      	; 0x11e6 <conv_brk+0x50>
    11e0:	80 e0       	ldi	r24, 0x00	; 0
    11e2:	90 e0       	ldi	r25, 0x00	; 0
    11e4:	92 c0       	rjmp	.+292    	; 0x130a <conv_brk+0x174>
    11e6:	2e 35       	cpi	r18, 0x5E	; 94
    11e8:	11 f4       	brne	.+4      	; 0x11ee <conv_brk+0x58>
    11ea:	00 97       	sbiw	r24, 0x00	; 0
    11ec:	51 f1       	breq	.+84     	; 0x1242 <conv_brk+0xac>
    11ee:	43 2f       	mov	r20, r19
    11f0:	50 e0       	ldi	r21, 0x00	; 0
    11f2:	48 17       	cp	r20, r24
    11f4:	59 07       	cpc	r21, r25
    11f6:	3c f4       	brge	.+14     	; 0x1206 <conv_brk+0x70>
    11f8:	2d 35       	cpi	r18, 0x5D	; 93
    11fa:	59 f1       	breq	.+86     	; 0x1252 <conv_brk+0xbc>
    11fc:	2d 32       	cpi	r18, 0x2D	; 45
    11fe:	19 f4       	brne	.+6      	; 0x1206 <conv_brk+0x70>
    1200:	77 20       	and	r7, r7
    1202:	09 f1       	breq	.+66     	; 0x1246 <conv_brk+0xb0>
    1204:	03 c0       	rjmp	.+6      	; 0x120c <conv_brk+0x76>
    1206:	77 20       	and	r7, r7
    1208:	09 f4       	brne	.+2      	; 0x120c <conv_brk+0x76>
    120a:	6a c0       	rjmp	.+212    	; 0x12e0 <conv_brk+0x14a>
    120c:	45 2d       	mov	r20, r5
    120e:	46 95       	lsr	r20
    1210:	46 95       	lsr	r20
    1212:	46 95       	lsr	r20
    1214:	d6 01       	movw	r26, r12
    1216:	a4 0f       	add	r26, r20
    1218:	b1 1d       	adc	r27, r1
    121a:	45 2d       	mov	r20, r5
    121c:	47 70       	andi	r20, 0x07	; 7
    121e:	8b 01       	movw	r16, r22
    1220:	02 c0       	rjmp	.+4      	; 0x1226 <conv_brk+0x90>
    1222:	00 0f       	add	r16, r16
    1224:	11 1f       	adc	r17, r17
    1226:	4a 95       	dec	r20
    1228:	e2 f7       	brpl	.-8      	; 0x1222 <conv_brk+0x8c>
    122a:	a8 01       	movw	r20, r16
    122c:	5c 91       	ld	r21, X
    122e:	45 2b       	or	r20, r21
    1230:	4c 93       	st	X, r20
    1232:	65 14       	cp	r6, r5
    1234:	59 f0       	breq	.+22     	; 0x124c <conv_brk+0xb6>
    1236:	56 14       	cp	r5, r6
    1238:	10 f4       	brcc	.+4      	; 0x123e <conv_brk+0xa8>
    123a:	53 94       	inc	r5
    123c:	e7 cf       	rjmp	.-50     	; 0x120c <conv_brk+0x76>
    123e:	5a 94       	dec	r5
    1240:	e5 cf       	rjmp	.-54     	; 0x120c <conv_brk+0x76>
    1242:	31 e0       	ldi	r19, 0x01	; 1
    1244:	04 c0       	rjmp	.+8      	; 0x124e <conv_brk+0xb8>
    1246:	77 24       	eor	r7, r7
    1248:	73 94       	inc	r7
    124a:	01 c0       	rjmp	.+2      	; 0x124e <conv_brk+0xb8>
    124c:	71 2c       	mov	r7, r1
    124e:	01 96       	adiw	r24, 0x01	; 1
    1250:	bf cf       	rjmp	.-130    	; 0x11d0 <conv_brk+0x3a>
    1252:	77 20       	and	r7, r7
    1254:	19 f0       	breq	.+6      	; 0x125c <conv_brk+0xc6>
    1256:	8e 81       	ldd	r24, Y+6	; 0x06
    1258:	80 62       	ori	r24, 0x20	; 32
    125a:	8e 83       	std	Y+6, r24	; 0x06
    125c:	31 11       	cpse	r19, r1
    125e:	03 c0       	rjmp	.+6      	; 0x1266 <conv_brk+0xd0>
    1260:	88 24       	eor	r8, r8
    1262:	83 94       	inc	r8
    1264:	17 c0       	rjmp	.+46     	; 0x1294 <conv_brk+0xfe>
    1266:	f6 01       	movw	r30, r12
    1268:	9e 01       	movw	r18, r28
    126a:	2f 5d       	subi	r18, 0xDF	; 223
    126c:	3f 4f       	sbci	r19, 0xFF	; 255
    126e:	80 81       	ld	r24, Z
    1270:	80 95       	com	r24
    1272:	81 93       	st	Z+, r24
    1274:	2e 17       	cp	r18, r30
    1276:	3f 07       	cpc	r19, r31
    1278:	d1 f7       	brne	.-12     	; 0x126e <conv_brk+0xd8>
    127a:	f2 cf       	rjmp	.-28     	; 0x1260 <conv_brk+0xca>
    127c:	e1 14       	cp	r14, r1
    127e:	f1 04       	cpc	r15, r1
    1280:	29 f0       	breq	.+10     	; 0x128c <conv_brk+0xf6>
    1282:	d7 01       	movw	r26, r14
    1284:	8c 93       	st	X, r24
    1286:	f7 01       	movw	r30, r14
    1288:	31 96       	adiw	r30, 0x01	; 1
    128a:	7f 01       	movw	r14, r30
    128c:	9a 94       	dec	r9
    128e:	81 2c       	mov	r8, r1
    1290:	99 20       	and	r9, r9
    1292:	f9 f0       	breq	.+62     	; 0x12d2 <conv_brk+0x13c>
    1294:	c5 01       	movw	r24, r10
    1296:	0e 94 c4 0a 	call	0x1588	; 0x1588 <fgetc>
    129a:	97 fd       	sbrc	r25, 7
    129c:	18 c0       	rjmp	.+48     	; 0x12ce <conv_brk+0x138>
    129e:	fc 01       	movw	r30, r24
    12a0:	ff 27       	eor	r31, r31
    12a2:	23 e0       	ldi	r18, 0x03	; 3
    12a4:	f5 95       	asr	r31
    12a6:	e7 95       	ror	r30
    12a8:	2a 95       	dec	r18
    12aa:	e1 f7       	brne	.-8      	; 0x12a4 <conv_brk+0x10e>
    12ac:	ec 0d       	add	r30, r12
    12ae:	fd 1d       	adc	r31, r13
    12b0:	20 81       	ld	r18, Z
    12b2:	30 e0       	ldi	r19, 0x00	; 0
    12b4:	ac 01       	movw	r20, r24
    12b6:	47 70       	andi	r20, 0x07	; 7
    12b8:	55 27       	eor	r21, r21
    12ba:	02 c0       	rjmp	.+4      	; 0x12c0 <conv_brk+0x12a>
    12bc:	35 95       	asr	r19
    12be:	27 95       	ror	r18
    12c0:	4a 95       	dec	r20
    12c2:	e2 f7       	brpl	.-8      	; 0x12bc <conv_brk+0x126>
    12c4:	20 fd       	sbrc	r18, 0
    12c6:	da cf       	rjmp	.-76     	; 0x127c <conv_brk+0xe6>
    12c8:	b5 01       	movw	r22, r10
    12ca:	0e 94 3e 0b 	call	0x167c	; 0x167c <ungetc>
    12ce:	81 10       	cpse	r8, r1
    12d0:	87 cf       	rjmp	.-242    	; 0x11e0 <conv_brk+0x4a>
    12d2:	e1 14       	cp	r14, r1
    12d4:	f1 04       	cpc	r15, r1
    12d6:	11 f0       	breq	.+4      	; 0x12dc <conv_brk+0x146>
    12d8:	d7 01       	movw	r26, r14
    12da:	1c 92       	st	X, r1
    12dc:	c8 01       	movw	r24, r16
    12de:	15 c0       	rjmp	.+42     	; 0x130a <conv_brk+0x174>
    12e0:	42 2f       	mov	r20, r18
    12e2:	46 95       	lsr	r20
    12e4:	46 95       	lsr	r20
    12e6:	46 95       	lsr	r20
    12e8:	d6 01       	movw	r26, r12
    12ea:	a4 0f       	add	r26, r20
    12ec:	b1 1d       	adc	r27, r1
    12ee:	42 2f       	mov	r20, r18
    12f0:	47 70       	andi	r20, 0x07	; 7
    12f2:	8b 01       	movw	r16, r22
    12f4:	02 c0       	rjmp	.+4      	; 0x12fa <conv_brk+0x164>
    12f6:	00 0f       	add	r16, r16
    12f8:	11 1f       	adc	r17, r17
    12fa:	4a 95       	dec	r20
    12fc:	e2 f7       	brpl	.-8      	; 0x12f6 <conv_brk+0x160>
    12fe:	a8 01       	movw	r20, r16
    1300:	5c 91       	ld	r21, X
    1302:	45 2b       	or	r20, r21
    1304:	4c 93       	st	X, r20
    1306:	62 2e       	mov	r6, r18
    1308:	a2 cf       	rjmp	.-188    	; 0x124e <conv_brk+0xb8>
    130a:	a0 96       	adiw	r28, 0x20	; 32
    130c:	ef e0       	ldi	r30, 0x0F	; 15
    130e:	0c 94 d7 0b 	jmp	0x17ae	; 0x17ae <__epilogue_restores__+0x6>

00001312 <vfscanf>:
    1312:	a0 e0       	ldi	r26, 0x00	; 0
    1314:	b0 e0       	ldi	r27, 0x00	; 0
    1316:	ef e8       	ldi	r30, 0x8F	; 143
    1318:	f9 e0       	ldi	r31, 0x09	; 9
    131a:	0c 94 bb 0b 	jmp	0x1776	; 0x1776 <__prologue_saves__+0x6>
    131e:	6c 01       	movw	r12, r24
    1320:	eb 01       	movw	r28, r22
    1322:	5a 01       	movw	r10, r20
    1324:	fc 01       	movw	r30, r24
    1326:	17 82       	std	Z+7, r1	; 0x07
    1328:	16 82       	std	Z+6, r1	; 0x06
    132a:	51 2c       	mov	r5, r1
    132c:	f6 01       	movw	r30, r12
    132e:	e3 80       	ldd	r14, Z+3	; 0x03
    1330:	fe 01       	movw	r30, r28
    1332:	e3 fc       	sbrc	r14, 3
    1334:	85 91       	lpm	r24, Z+
    1336:	e3 fe       	sbrs	r14, 3
    1338:	81 91       	ld	r24, Z+
    133a:	18 2f       	mov	r17, r24
    133c:	ef 01       	movw	r28, r30
    133e:	88 23       	and	r24, r24
    1340:	09 f4       	brne	.+2      	; 0x1344 <vfscanf+0x32>
    1342:	ee c0       	rjmp	.+476    	; 0x1520 <vfscanf+0x20e>
    1344:	90 e0       	ldi	r25, 0x00	; 0
    1346:	0e 94 9a 0a 	call	0x1534	; 0x1534 <isspace>
    134a:	89 2b       	or	r24, r25
    134c:	21 f0       	breq	.+8      	; 0x1356 <vfscanf+0x44>
    134e:	c6 01       	movw	r24, r12
    1350:	0e 94 20 08 	call	0x1040	; 0x1040 <skip_spaces>
    1354:	eb cf       	rjmp	.-42     	; 0x132c <vfscanf+0x1a>
    1356:	15 32       	cpi	r17, 0x25	; 37
    1358:	41 f4       	brne	.+16     	; 0x136a <vfscanf+0x58>
    135a:	fe 01       	movw	r30, r28
    135c:	e3 fc       	sbrc	r14, 3
    135e:	15 91       	lpm	r17, Z+
    1360:	e3 fe       	sbrs	r14, 3
    1362:	11 91       	ld	r17, Z+
    1364:	ef 01       	movw	r28, r30
    1366:	15 32       	cpi	r17, 0x25	; 37
    1368:	81 f4       	brne	.+32     	; 0x138a <vfscanf+0x78>
    136a:	c6 01       	movw	r24, r12
    136c:	0e 94 c4 0a 	call	0x1588	; 0x1588 <fgetc>
    1370:	97 fd       	sbrc	r25, 7
    1372:	d4 c0       	rjmp	.+424    	; 0x151c <vfscanf+0x20a>
    1374:	41 2f       	mov	r20, r17
    1376:	50 e0       	ldi	r21, 0x00	; 0
    1378:	9c 01       	movw	r18, r24
    137a:	33 27       	eor	r19, r19
    137c:	24 17       	cp	r18, r20
    137e:	35 07       	cpc	r19, r21
    1380:	a9 f2       	breq	.-86     	; 0x132c <vfscanf+0x1a>
    1382:	b6 01       	movw	r22, r12
    1384:	0e 94 3e 0b 	call	0x167c	; 0x167c <ungetc>
    1388:	cb c0       	rjmp	.+406    	; 0x1520 <vfscanf+0x20e>
    138a:	1a 32       	cpi	r17, 0x2A	; 42
    138c:	39 f4       	brne	.+14     	; 0x139c <vfscanf+0x8a>
    138e:	e3 fc       	sbrc	r14, 3
    1390:	15 91       	lpm	r17, Z+
    1392:	e3 fe       	sbrs	r14, 3
    1394:	11 91       	ld	r17, Z+
    1396:	ef 01       	movw	r28, r30
    1398:	01 e0       	ldi	r16, 0x01	; 1
    139a:	01 c0       	rjmp	.+2      	; 0x139e <vfscanf+0x8c>
    139c:	00 e0       	ldi	r16, 0x00	; 0
    139e:	f1 2c       	mov	r15, r1
    13a0:	20 ed       	ldi	r18, 0xD0	; 208
    13a2:	21 0f       	add	r18, r17
    13a4:	2a 30       	cpi	r18, 0x0A	; 10
    13a6:	80 f4       	brcc	.+32     	; 0x13c8 <vfscanf+0xb6>
    13a8:	02 60       	ori	r16, 0x02	; 2
    13aa:	6f 2d       	mov	r22, r15
    13ac:	70 e0       	ldi	r23, 0x00	; 0
    13ae:	80 e0       	ldi	r24, 0x00	; 0
    13b0:	90 e0       	ldi	r25, 0x00	; 0
    13b2:	40 e2       	ldi	r20, 0x20	; 32
    13b4:	0e 94 f9 07 	call	0xff2	; 0xff2 <mulacc>
    13b8:	f6 2e       	mov	r15, r22
    13ba:	fe 01       	movw	r30, r28
    13bc:	e3 fc       	sbrc	r14, 3
    13be:	15 91       	lpm	r17, Z+
    13c0:	e3 fe       	sbrs	r14, 3
    13c2:	11 91       	ld	r17, Z+
    13c4:	ef 01       	movw	r28, r30
    13c6:	ec cf       	rjmp	.-40     	; 0x13a0 <vfscanf+0x8e>
    13c8:	01 ff       	sbrs	r16, 1
    13ca:	03 c0       	rjmp	.+6      	; 0x13d2 <vfscanf+0xc0>
    13cc:	f1 10       	cpse	r15, r1
    13ce:	03 c0       	rjmp	.+6      	; 0x13d6 <vfscanf+0xc4>
    13d0:	a7 c0       	rjmp	.+334    	; 0x1520 <vfscanf+0x20e>
    13d2:	ff 24       	eor	r15, r15
    13d4:	fa 94       	dec	r15
    13d6:	18 36       	cpi	r17, 0x68	; 104
    13d8:	19 f0       	breq	.+6      	; 0x13e0 <vfscanf+0xce>
    13da:	1c 36       	cpi	r17, 0x6C	; 108
    13dc:	51 f0       	breq	.+20     	; 0x13f2 <vfscanf+0xe0>
    13de:	10 c0       	rjmp	.+32     	; 0x1400 <vfscanf+0xee>
    13e0:	fe 01       	movw	r30, r28
    13e2:	e3 fc       	sbrc	r14, 3
    13e4:	15 91       	lpm	r17, Z+
    13e6:	e3 fe       	sbrs	r14, 3
    13e8:	11 91       	ld	r17, Z+
    13ea:	ef 01       	movw	r28, r30
    13ec:	18 36       	cpi	r17, 0x68	; 104
    13ee:	41 f4       	brne	.+16     	; 0x1400 <vfscanf+0xee>
    13f0:	08 60       	ori	r16, 0x08	; 8
    13f2:	04 60       	ori	r16, 0x04	; 4
    13f4:	fe 01       	movw	r30, r28
    13f6:	e3 fc       	sbrc	r14, 3
    13f8:	15 91       	lpm	r17, Z+
    13fa:	e3 fe       	sbrs	r14, 3
    13fc:	11 91       	ld	r17, Z+
    13fe:	ef 01       	movw	r28, r30
    1400:	11 23       	and	r17, r17
    1402:	09 f4       	brne	.+2      	; 0x1406 <vfscanf+0xf4>
    1404:	8d c0       	rjmp	.+282    	; 0x1520 <vfscanf+0x20e>
    1406:	61 2f       	mov	r22, r17
    1408:	70 e0       	ldi	r23, 0x00	; 0
    140a:	86 e0       	ldi	r24, 0x06	; 6
    140c:	91 e0       	ldi	r25, 0x01	; 1
    140e:	0e 94 a3 0a 	call	0x1546	; 0x1546 <strchr_P>
    1412:	89 2b       	or	r24, r25
    1414:	09 f4       	brne	.+2      	; 0x1418 <vfscanf+0x106>
    1416:	84 c0       	rjmp	.+264    	; 0x1520 <vfscanf+0x20e>
    1418:	00 fd       	sbrc	r16, 0
    141a:	07 c0       	rjmp	.+14     	; 0x142a <vfscanf+0x118>
    141c:	f5 01       	movw	r30, r10
    141e:	80 80       	ld	r8, Z
    1420:	91 80       	ldd	r9, Z+1	; 0x01
    1422:	c5 01       	movw	r24, r10
    1424:	02 96       	adiw	r24, 0x02	; 2
    1426:	5c 01       	movw	r10, r24
    1428:	02 c0       	rjmp	.+4      	; 0x142e <vfscanf+0x11c>
    142a:	81 2c       	mov	r8, r1
    142c:	91 2c       	mov	r9, r1
    142e:	1e 36       	cpi	r17, 0x6E	; 110
    1430:	51 f4       	brne	.+20     	; 0x1446 <vfscanf+0x134>
    1432:	f6 01       	movw	r30, r12
    1434:	46 81       	ldd	r20, Z+6	; 0x06
    1436:	57 81       	ldd	r21, Z+7	; 0x07
    1438:	60 e0       	ldi	r22, 0x00	; 0
    143a:	70 e0       	ldi	r23, 0x00	; 0
    143c:	20 2f       	mov	r18, r16
    143e:	c4 01       	movw	r24, r8
    1440:	0e 94 ed 07 	call	0xfda	; 0xfda <putval>
    1444:	73 cf       	rjmp	.-282    	; 0x132c <vfscanf+0x1a>
    1446:	13 36       	cpi	r17, 0x63	; 99
    1448:	a9 f4       	brne	.+42     	; 0x1474 <vfscanf+0x162>
    144a:	01 fd       	sbrc	r16, 1
    144c:	02 c0       	rjmp	.+4      	; 0x1452 <vfscanf+0x140>
    144e:	ff 24       	eor	r15, r15
    1450:	f3 94       	inc	r15
    1452:	c6 01       	movw	r24, r12
    1454:	0e 94 c4 0a 	call	0x1588	; 0x1588 <fgetc>
    1458:	97 fd       	sbrc	r25, 7
    145a:	60 c0       	rjmp	.+192    	; 0x151c <vfscanf+0x20a>
    145c:	81 14       	cp	r8, r1
    145e:	91 04       	cpc	r9, r1
    1460:	29 f0       	breq	.+10     	; 0x146c <vfscanf+0x15a>
    1462:	f4 01       	movw	r30, r8
    1464:	80 83       	st	Z, r24
    1466:	c4 01       	movw	r24, r8
    1468:	01 96       	adiw	r24, 0x01	; 1
    146a:	4c 01       	movw	r8, r24
    146c:	fa 94       	dec	r15
    146e:	f1 10       	cpse	r15, r1
    1470:	f0 cf       	rjmp	.-32     	; 0x1452 <vfscanf+0x140>
    1472:	50 c0       	rjmp	.+160    	; 0x1514 <vfscanf+0x202>
    1474:	1b 35       	cpi	r17, 0x5B	; 91
    1476:	59 f4       	brne	.+22     	; 0x148e <vfscanf+0x17c>
    1478:	9e 01       	movw	r18, r28
    147a:	a4 01       	movw	r20, r8
    147c:	6f 2d       	mov	r22, r15
    147e:	c6 01       	movw	r24, r12
    1480:	0e 94 cb 08 	call	0x1196	; 0x1196 <conv_brk>
    1484:	ec 01       	movw	r28, r24
    1486:	89 2b       	or	r24, r25
    1488:	09 f0       	breq	.+2      	; 0x148c <vfscanf+0x17a>
    148a:	44 c0       	rjmp	.+136    	; 0x1514 <vfscanf+0x202>
    148c:	3e c0       	rjmp	.+124    	; 0x150a <vfscanf+0x1f8>
    148e:	c6 01       	movw	r24, r12
    1490:	0e 94 20 08 	call	0x1040	; 0x1040 <skip_spaces>
    1494:	97 fd       	sbrc	r25, 7
    1496:	42 c0       	rjmp	.+132    	; 0x151c <vfscanf+0x20a>
    1498:	1f 36       	cpi	r17, 0x6F	; 111
    149a:	61 f1       	breq	.+88     	; 0x14f4 <vfscanf+0x1e2>
    149c:	28 f4       	brcc	.+10     	; 0x14a8 <vfscanf+0x196>
    149e:	14 36       	cpi	r17, 0x64	; 100
    14a0:	39 f1       	breq	.+78     	; 0x14f0 <vfscanf+0x1de>
    14a2:	19 36       	cpi	r17, 0x69	; 105
    14a4:	51 f1       	breq	.+84     	; 0x14fa <vfscanf+0x1e8>
    14a6:	28 c0       	rjmp	.+80     	; 0x14f8 <vfscanf+0x1e6>
    14a8:	13 37       	cpi	r17, 0x73	; 115
    14aa:	71 f0       	breq	.+28     	; 0x14c8 <vfscanf+0x1b6>
    14ac:	15 37       	cpi	r17, 0x75	; 117
    14ae:	01 f1       	breq	.+64     	; 0x14f0 <vfscanf+0x1de>
    14b0:	23 c0       	rjmp	.+70     	; 0x14f8 <vfscanf+0x1e6>
    14b2:	81 14       	cp	r8, r1
    14b4:	91 04       	cpc	r9, r1
    14b6:	29 f0       	breq	.+10     	; 0x14c2 <vfscanf+0x1b0>
    14b8:	f4 01       	movw	r30, r8
    14ba:	60 82       	st	Z, r6
    14bc:	c4 01       	movw	r24, r8
    14be:	01 96       	adiw	r24, 0x01	; 1
    14c0:	4c 01       	movw	r8, r24
    14c2:	fa 94       	dec	r15
    14c4:	ff 20       	and	r15, r15
    14c6:	71 f0       	breq	.+28     	; 0x14e4 <vfscanf+0x1d2>
    14c8:	c6 01       	movw	r24, r12
    14ca:	0e 94 c4 0a 	call	0x1588	; 0x1588 <fgetc>
    14ce:	3c 01       	movw	r6, r24
    14d0:	97 fd       	sbrc	r25, 7
    14d2:	08 c0       	rjmp	.+16     	; 0x14e4 <vfscanf+0x1d2>
    14d4:	0e 94 9a 0a 	call	0x1534	; 0x1534 <isspace>
    14d8:	89 2b       	or	r24, r25
    14da:	59 f3       	breq	.-42     	; 0x14b2 <vfscanf+0x1a0>
    14dc:	b6 01       	movw	r22, r12
    14de:	c3 01       	movw	r24, r6
    14e0:	0e 94 3e 0b 	call	0x167c	; 0x167c <ungetc>
    14e4:	81 14       	cp	r8, r1
    14e6:	91 04       	cpc	r9, r1
    14e8:	a9 f0       	breq	.+42     	; 0x1514 <vfscanf+0x202>
    14ea:	f4 01       	movw	r30, r8
    14ec:	10 82       	st	Z, r1
    14ee:	12 c0       	rjmp	.+36     	; 0x1514 <vfscanf+0x202>
    14f0:	00 62       	ori	r16, 0x20	; 32
    14f2:	03 c0       	rjmp	.+6      	; 0x14fa <vfscanf+0x1e8>
    14f4:	00 61       	ori	r16, 0x10	; 16
    14f6:	01 c0       	rjmp	.+2      	; 0x14fa <vfscanf+0x1e8>
    14f8:	00 64       	ori	r16, 0x40	; 64
    14fa:	20 2f       	mov	r18, r16
    14fc:	a4 01       	movw	r20, r8
    14fe:	6f 2d       	mov	r22, r15
    1500:	c6 01       	movw	r24, r12
    1502:	0e 94 39 08 	call	0x1072	; 0x1072 <conv_int>
    1506:	81 11       	cpse	r24, r1
    1508:	05 c0       	rjmp	.+10     	; 0x1514 <vfscanf+0x202>
    150a:	f6 01       	movw	r30, r12
    150c:	83 81       	ldd	r24, Z+3	; 0x03
    150e:	80 73       	andi	r24, 0x30	; 48
    1510:	29 f4       	brne	.+10     	; 0x151c <vfscanf+0x20a>
    1512:	06 c0       	rjmp	.+12     	; 0x1520 <vfscanf+0x20e>
    1514:	00 fd       	sbrc	r16, 0
    1516:	0a cf       	rjmp	.-492    	; 0x132c <vfscanf+0x1a>
    1518:	53 94       	inc	r5
    151a:	08 cf       	rjmp	.-496    	; 0x132c <vfscanf+0x1a>
    151c:	55 20       	and	r5, r5
    151e:	19 f0       	breq	.+6      	; 0x1526 <vfscanf+0x214>
    1520:	85 2d       	mov	r24, r5
    1522:	90 e0       	ldi	r25, 0x00	; 0
    1524:	02 c0       	rjmp	.+4      	; 0x152a <vfscanf+0x218>
    1526:	8f ef       	ldi	r24, 0xFF	; 255
    1528:	9f ef       	ldi	r25, 0xFF	; 255
    152a:	cd b7       	in	r28, 0x3d	; 61
    152c:	de b7       	in	r29, 0x3e	; 62
    152e:	ef e0       	ldi	r30, 0x0F	; 15
    1530:	0c 94 d7 0b 	jmp	0x17ae	; 0x17ae <__epilogue_restores__+0x6>

00001534 <isspace>:
    1534:	91 11       	cpse	r25, r1
    1536:	0c 94 b5 0b 	jmp	0x176a	; 0x176a <__ctype_isfalse>
    153a:	80 32       	cpi	r24, 0x20	; 32
    153c:	19 f0       	breq	.+6      	; 0x1544 <isspace+0x10>
    153e:	89 50       	subi	r24, 0x09	; 9
    1540:	85 50       	subi	r24, 0x05	; 5
    1542:	c8 f7       	brcc	.-14     	; 0x1536 <isspace+0x2>
    1544:	08 95       	ret

00001546 <strchr_P>:
    1546:	fc 01       	movw	r30, r24
    1548:	05 90       	lpm	r0, Z+
    154a:	06 16       	cp	r0, r22
    154c:	21 f0       	breq	.+8      	; 0x1556 <strchr_P+0x10>
    154e:	00 20       	and	r0, r0
    1550:	d9 f7       	brne	.-10     	; 0x1548 <strchr_P+0x2>
    1552:	c0 01       	movw	r24, r0
    1554:	08 95       	ret
    1556:	31 97       	sbiw	r30, 0x01	; 1
    1558:	cf 01       	movw	r24, r30
    155a:	08 95       	ret

0000155c <strnlen_P>:
    155c:	fc 01       	movw	r30, r24
    155e:	05 90       	lpm	r0, Z+
    1560:	61 50       	subi	r22, 0x01	; 1
    1562:	70 40       	sbci	r23, 0x00	; 0
    1564:	01 10       	cpse	r0, r1
    1566:	d8 f7       	brcc	.-10     	; 0x155e <strnlen_P+0x2>
    1568:	80 95       	com	r24
    156a:	90 95       	com	r25
    156c:	8e 0f       	add	r24, r30
    156e:	9f 1f       	adc	r25, r31
    1570:	08 95       	ret

00001572 <strnlen>:
    1572:	fc 01       	movw	r30, r24
    1574:	61 50       	subi	r22, 0x01	; 1
    1576:	70 40       	sbci	r23, 0x00	; 0
    1578:	01 90       	ld	r0, Z+
    157a:	01 10       	cpse	r0, r1
    157c:	d8 f7       	brcc	.-10     	; 0x1574 <strnlen+0x2>
    157e:	80 95       	com	r24
    1580:	90 95       	com	r25
    1582:	8e 0f       	add	r24, r30
    1584:	9f 1f       	adc	r25, r31
    1586:	08 95       	ret

00001588 <fgetc>:
    1588:	cf 93       	push	r28
    158a:	df 93       	push	r29
    158c:	ec 01       	movw	r28, r24
    158e:	2b 81       	ldd	r18, Y+3	; 0x03
    1590:	20 ff       	sbrs	r18, 0
    1592:	33 c0       	rjmp	.+102    	; 0x15fa <fgetc+0x72>
    1594:	26 ff       	sbrs	r18, 6
    1596:	0a c0       	rjmp	.+20     	; 0x15ac <fgetc+0x24>
    1598:	2f 7b       	andi	r18, 0xBF	; 191
    159a:	2b 83       	std	Y+3, r18	; 0x03
    159c:	8e 81       	ldd	r24, Y+6	; 0x06
    159e:	9f 81       	ldd	r25, Y+7	; 0x07
    15a0:	01 96       	adiw	r24, 0x01	; 1
    15a2:	9f 83       	std	Y+7, r25	; 0x07
    15a4:	8e 83       	std	Y+6, r24	; 0x06
    15a6:	8a 81       	ldd	r24, Y+2	; 0x02
    15a8:	90 e0       	ldi	r25, 0x00	; 0
    15aa:	29 c0       	rjmp	.+82     	; 0x15fe <fgetc+0x76>
    15ac:	22 ff       	sbrs	r18, 2
    15ae:	0f c0       	rjmp	.+30     	; 0x15ce <fgetc+0x46>
    15b0:	e8 81       	ld	r30, Y
    15b2:	f9 81       	ldd	r31, Y+1	; 0x01
    15b4:	80 81       	ld	r24, Z
    15b6:	08 2e       	mov	r0, r24
    15b8:	00 0c       	add	r0, r0
    15ba:	99 0b       	sbc	r25, r25
    15bc:	00 97       	sbiw	r24, 0x00	; 0
    15be:	19 f4       	brne	.+6      	; 0x15c6 <fgetc+0x3e>
    15c0:	20 62       	ori	r18, 0x20	; 32
    15c2:	2b 83       	std	Y+3, r18	; 0x03
    15c4:	1a c0       	rjmp	.+52     	; 0x15fa <fgetc+0x72>
    15c6:	31 96       	adiw	r30, 0x01	; 1
    15c8:	f9 83       	std	Y+1, r31	; 0x01
    15ca:	e8 83       	st	Y, r30
    15cc:	0e c0       	rjmp	.+28     	; 0x15ea <fgetc+0x62>
    15ce:	ea 85       	ldd	r30, Y+10	; 0x0a
    15d0:	fb 85       	ldd	r31, Y+11	; 0x0b
    15d2:	09 95       	icall
    15d4:	97 ff       	sbrs	r25, 7
    15d6:	09 c0       	rjmp	.+18     	; 0x15ea <fgetc+0x62>
    15d8:	2b 81       	ldd	r18, Y+3	; 0x03
    15da:	01 96       	adiw	r24, 0x01	; 1
    15dc:	11 f0       	breq	.+4      	; 0x15e2 <fgetc+0x5a>
    15de:	80 e2       	ldi	r24, 0x20	; 32
    15e0:	01 c0       	rjmp	.+2      	; 0x15e4 <fgetc+0x5c>
    15e2:	80 e1       	ldi	r24, 0x10	; 16
    15e4:	82 2b       	or	r24, r18
    15e6:	8b 83       	std	Y+3, r24	; 0x03
    15e8:	08 c0       	rjmp	.+16     	; 0x15fa <fgetc+0x72>
    15ea:	2e 81       	ldd	r18, Y+6	; 0x06
    15ec:	3f 81       	ldd	r19, Y+7	; 0x07
    15ee:	2f 5f       	subi	r18, 0xFF	; 255
    15f0:	3f 4f       	sbci	r19, 0xFF	; 255
    15f2:	3f 83       	std	Y+7, r19	; 0x07
    15f4:	2e 83       	std	Y+6, r18	; 0x06
    15f6:	99 27       	eor	r25, r25
    15f8:	02 c0       	rjmp	.+4      	; 0x15fe <fgetc+0x76>
    15fa:	8f ef       	ldi	r24, 0xFF	; 255
    15fc:	9f ef       	ldi	r25, 0xFF	; 255
    15fe:	df 91       	pop	r29
    1600:	cf 91       	pop	r28
    1602:	08 95       	ret

00001604 <fputc>:
    1604:	0f 93       	push	r16
    1606:	1f 93       	push	r17
    1608:	cf 93       	push	r28
    160a:	df 93       	push	r29
    160c:	fb 01       	movw	r30, r22
    160e:	23 81       	ldd	r18, Z+3	; 0x03
    1610:	21 fd       	sbrc	r18, 1
    1612:	03 c0       	rjmp	.+6      	; 0x161a <fputc+0x16>
    1614:	8f ef       	ldi	r24, 0xFF	; 255
    1616:	9f ef       	ldi	r25, 0xFF	; 255
    1618:	2c c0       	rjmp	.+88     	; 0x1672 <fputc+0x6e>
    161a:	22 ff       	sbrs	r18, 2
    161c:	16 c0       	rjmp	.+44     	; 0x164a <fputc+0x46>
    161e:	46 81       	ldd	r20, Z+6	; 0x06
    1620:	57 81       	ldd	r21, Z+7	; 0x07
    1622:	24 81       	ldd	r18, Z+4	; 0x04
    1624:	35 81       	ldd	r19, Z+5	; 0x05
    1626:	42 17       	cp	r20, r18
    1628:	53 07       	cpc	r21, r19
    162a:	44 f4       	brge	.+16     	; 0x163c <fputc+0x38>
    162c:	a0 81       	ld	r26, Z
    162e:	b1 81       	ldd	r27, Z+1	; 0x01
    1630:	9d 01       	movw	r18, r26
    1632:	2f 5f       	subi	r18, 0xFF	; 255
    1634:	3f 4f       	sbci	r19, 0xFF	; 255
    1636:	31 83       	std	Z+1, r19	; 0x01
    1638:	20 83       	st	Z, r18
    163a:	8c 93       	st	X, r24
    163c:	26 81       	ldd	r18, Z+6	; 0x06
    163e:	37 81       	ldd	r19, Z+7	; 0x07
    1640:	2f 5f       	subi	r18, 0xFF	; 255
    1642:	3f 4f       	sbci	r19, 0xFF	; 255
    1644:	37 83       	std	Z+7, r19	; 0x07
    1646:	26 83       	std	Z+6, r18	; 0x06
    1648:	14 c0       	rjmp	.+40     	; 0x1672 <fputc+0x6e>
    164a:	8b 01       	movw	r16, r22
    164c:	ec 01       	movw	r28, r24
    164e:	fb 01       	movw	r30, r22
    1650:	00 84       	ldd	r0, Z+8	; 0x08
    1652:	f1 85       	ldd	r31, Z+9	; 0x09
    1654:	e0 2d       	mov	r30, r0
    1656:	09 95       	icall
    1658:	89 2b       	or	r24, r25
    165a:	e1 f6       	brne	.-72     	; 0x1614 <fputc+0x10>
    165c:	d8 01       	movw	r26, r16
    165e:	16 96       	adiw	r26, 0x06	; 6
    1660:	8d 91       	ld	r24, X+
    1662:	9c 91       	ld	r25, X
    1664:	17 97       	sbiw	r26, 0x07	; 7
    1666:	01 96       	adiw	r24, 0x01	; 1
    1668:	17 96       	adiw	r26, 0x07	; 7
    166a:	9c 93       	st	X, r25
    166c:	8e 93       	st	-X, r24
    166e:	16 97       	sbiw	r26, 0x06	; 6
    1670:	ce 01       	movw	r24, r28
    1672:	df 91       	pop	r29
    1674:	cf 91       	pop	r28
    1676:	1f 91       	pop	r17
    1678:	0f 91       	pop	r16
    167a:	08 95       	ret

0000167c <ungetc>:
    167c:	fb 01       	movw	r30, r22
    167e:	23 81       	ldd	r18, Z+3	; 0x03
    1680:	20 ff       	sbrs	r18, 0
    1682:	12 c0       	rjmp	.+36     	; 0x16a8 <ungetc+0x2c>
    1684:	26 fd       	sbrc	r18, 6
    1686:	10 c0       	rjmp	.+32     	; 0x16a8 <ungetc+0x2c>
    1688:	8f 3f       	cpi	r24, 0xFF	; 255
    168a:	3f ef       	ldi	r19, 0xFF	; 255
    168c:	93 07       	cpc	r25, r19
    168e:	61 f0       	breq	.+24     	; 0x16a8 <ungetc+0x2c>
    1690:	82 83       	std	Z+2, r24	; 0x02
    1692:	2f 7d       	andi	r18, 0xDF	; 223
    1694:	20 64       	ori	r18, 0x40	; 64
    1696:	23 83       	std	Z+3, r18	; 0x03
    1698:	26 81       	ldd	r18, Z+6	; 0x06
    169a:	37 81       	ldd	r19, Z+7	; 0x07
    169c:	21 50       	subi	r18, 0x01	; 1
    169e:	31 09       	sbc	r19, r1
    16a0:	37 83       	std	Z+7, r19	; 0x07
    16a2:	26 83       	std	Z+6, r18	; 0x06
    16a4:	99 27       	eor	r25, r25
    16a6:	08 95       	ret
    16a8:	8f ef       	ldi	r24, 0xFF	; 255
    16aa:	9f ef       	ldi	r25, 0xFF	; 255
    16ac:	08 95       	ret

000016ae <__ultoa_invert>:
    16ae:	fa 01       	movw	r30, r20
    16b0:	aa 27       	eor	r26, r26
    16b2:	28 30       	cpi	r18, 0x08	; 8
    16b4:	51 f1       	breq	.+84     	; 0x170a <__ultoa_invert+0x5c>
    16b6:	20 31       	cpi	r18, 0x10	; 16
    16b8:	81 f1       	breq	.+96     	; 0x171a <__ultoa_invert+0x6c>
    16ba:	e8 94       	clt
    16bc:	6f 93       	push	r22
    16be:	6e 7f       	andi	r22, 0xFE	; 254
    16c0:	6e 5f       	subi	r22, 0xFE	; 254
    16c2:	7f 4f       	sbci	r23, 0xFF	; 255
    16c4:	8f 4f       	sbci	r24, 0xFF	; 255
    16c6:	9f 4f       	sbci	r25, 0xFF	; 255
    16c8:	af 4f       	sbci	r26, 0xFF	; 255
    16ca:	b1 e0       	ldi	r27, 0x01	; 1
    16cc:	3e d0       	rcall	.+124    	; 0x174a <__ultoa_invert+0x9c>
    16ce:	b4 e0       	ldi	r27, 0x04	; 4
    16d0:	3c d0       	rcall	.+120    	; 0x174a <__ultoa_invert+0x9c>
    16d2:	67 0f       	add	r22, r23
    16d4:	78 1f       	adc	r23, r24
    16d6:	89 1f       	adc	r24, r25
    16d8:	9a 1f       	adc	r25, r26
    16da:	a1 1d       	adc	r26, r1
    16dc:	68 0f       	add	r22, r24
    16de:	79 1f       	adc	r23, r25
    16e0:	8a 1f       	adc	r24, r26
    16e2:	91 1d       	adc	r25, r1
    16e4:	a1 1d       	adc	r26, r1
    16e6:	6a 0f       	add	r22, r26
    16e8:	71 1d       	adc	r23, r1
    16ea:	81 1d       	adc	r24, r1
    16ec:	91 1d       	adc	r25, r1
    16ee:	a1 1d       	adc	r26, r1
    16f0:	20 d0       	rcall	.+64     	; 0x1732 <__ultoa_invert+0x84>
    16f2:	09 f4       	brne	.+2      	; 0x16f6 <__ultoa_invert+0x48>
    16f4:	68 94       	set
    16f6:	3f 91       	pop	r19
    16f8:	2a e0       	ldi	r18, 0x0A	; 10
    16fa:	26 9f       	mul	r18, r22
    16fc:	11 24       	eor	r1, r1
    16fe:	30 19       	sub	r19, r0
    1700:	30 5d       	subi	r19, 0xD0	; 208
    1702:	31 93       	st	Z+, r19
    1704:	de f6       	brtc	.-74     	; 0x16bc <__ultoa_invert+0xe>
    1706:	cf 01       	movw	r24, r30
    1708:	08 95       	ret
    170a:	46 2f       	mov	r20, r22
    170c:	47 70       	andi	r20, 0x07	; 7
    170e:	40 5d       	subi	r20, 0xD0	; 208
    1710:	41 93       	st	Z+, r20
    1712:	b3 e0       	ldi	r27, 0x03	; 3
    1714:	0f d0       	rcall	.+30     	; 0x1734 <__ultoa_invert+0x86>
    1716:	c9 f7       	brne	.-14     	; 0x170a <__ultoa_invert+0x5c>
    1718:	f6 cf       	rjmp	.-20     	; 0x1706 <__ultoa_invert+0x58>
    171a:	46 2f       	mov	r20, r22
    171c:	4f 70       	andi	r20, 0x0F	; 15
    171e:	40 5d       	subi	r20, 0xD0	; 208
    1720:	4a 33       	cpi	r20, 0x3A	; 58
    1722:	18 f0       	brcs	.+6      	; 0x172a <__ultoa_invert+0x7c>
    1724:	49 5d       	subi	r20, 0xD9	; 217
    1726:	31 fd       	sbrc	r19, 1
    1728:	40 52       	subi	r20, 0x20	; 32
    172a:	41 93       	st	Z+, r20
    172c:	02 d0       	rcall	.+4      	; 0x1732 <__ultoa_invert+0x84>
    172e:	a9 f7       	brne	.-22     	; 0x171a <__ultoa_invert+0x6c>
    1730:	ea cf       	rjmp	.-44     	; 0x1706 <__ultoa_invert+0x58>
    1732:	b4 e0       	ldi	r27, 0x04	; 4
    1734:	a6 95       	lsr	r26
    1736:	97 95       	ror	r25
    1738:	87 95       	ror	r24
    173a:	77 95       	ror	r23
    173c:	67 95       	ror	r22
    173e:	ba 95       	dec	r27
    1740:	c9 f7       	brne	.-14     	; 0x1734 <__ultoa_invert+0x86>
    1742:	00 97       	sbiw	r24, 0x00	; 0
    1744:	61 05       	cpc	r22, r1
    1746:	71 05       	cpc	r23, r1
    1748:	08 95       	ret
    174a:	9b 01       	movw	r18, r22
    174c:	ac 01       	movw	r20, r24
    174e:	0a 2e       	mov	r0, r26
    1750:	06 94       	lsr	r0
    1752:	57 95       	ror	r21
    1754:	47 95       	ror	r20
    1756:	37 95       	ror	r19
    1758:	27 95       	ror	r18
    175a:	ba 95       	dec	r27
    175c:	c9 f7       	brne	.-14     	; 0x1750 <__ultoa_invert+0xa2>
    175e:	62 0f       	add	r22, r18
    1760:	73 1f       	adc	r23, r19
    1762:	84 1f       	adc	r24, r20
    1764:	95 1f       	adc	r25, r21
    1766:	a0 1d       	adc	r26, r0
    1768:	08 95       	ret

0000176a <__ctype_isfalse>:
    176a:	99 27       	eor	r25, r25
    176c:	88 27       	eor	r24, r24

0000176e <__ctype_istrue>:
    176e:	08 95       	ret

00001770 <__prologue_saves__>:
    1770:	2f 92       	push	r2
    1772:	3f 92       	push	r3
    1774:	4f 92       	push	r4
    1776:	5f 92       	push	r5
    1778:	6f 92       	push	r6
    177a:	7f 92       	push	r7
    177c:	8f 92       	push	r8
    177e:	9f 92       	push	r9
    1780:	af 92       	push	r10
    1782:	bf 92       	push	r11
    1784:	cf 92       	push	r12
    1786:	df 92       	push	r13
    1788:	ef 92       	push	r14
    178a:	ff 92       	push	r15
    178c:	0f 93       	push	r16
    178e:	1f 93       	push	r17
    1790:	cf 93       	push	r28
    1792:	df 93       	push	r29
    1794:	cd b7       	in	r28, 0x3d	; 61
    1796:	de b7       	in	r29, 0x3e	; 62
    1798:	ca 1b       	sub	r28, r26
    179a:	db 0b       	sbc	r29, r27
    179c:	0f b6       	in	r0, 0x3f	; 63
    179e:	f8 94       	cli
    17a0:	de bf       	out	0x3e, r29	; 62
    17a2:	0f be       	out	0x3f, r0	; 63
    17a4:	cd bf       	out	0x3d, r28	; 61
    17a6:	09 94       	ijmp

000017a8 <__epilogue_restores__>:
    17a8:	2a 88       	ldd	r2, Y+18	; 0x12
    17aa:	39 88       	ldd	r3, Y+17	; 0x11
    17ac:	48 88       	ldd	r4, Y+16	; 0x10
    17ae:	5f 84       	ldd	r5, Y+15	; 0x0f
    17b0:	6e 84       	ldd	r6, Y+14	; 0x0e
    17b2:	7d 84       	ldd	r7, Y+13	; 0x0d
    17b4:	8c 84       	ldd	r8, Y+12	; 0x0c
    17b6:	9b 84       	ldd	r9, Y+11	; 0x0b
    17b8:	aa 84       	ldd	r10, Y+10	; 0x0a
    17ba:	b9 84       	ldd	r11, Y+9	; 0x09
    17bc:	c8 84       	ldd	r12, Y+8	; 0x08
    17be:	df 80       	ldd	r13, Y+7	; 0x07
    17c0:	ee 80       	ldd	r14, Y+6	; 0x06
    17c2:	fd 80       	ldd	r15, Y+5	; 0x05
    17c4:	0c 81       	ldd	r16, Y+4	; 0x04
    17c6:	1b 81       	ldd	r17, Y+3	; 0x03
    17c8:	aa 81       	ldd	r26, Y+2	; 0x02
    17ca:	b9 81       	ldd	r27, Y+1	; 0x01
    17cc:	ce 0f       	add	r28, r30
    17ce:	d1 1d       	adc	r29, r1
    17d0:	0f b6       	in	r0, 0x3f	; 63
    17d2:	f8 94       	cli
    17d4:	de bf       	out	0x3e, r29	; 62
    17d6:	0f be       	out	0x3f, r0	; 63
    17d8:	cd bf       	out	0x3d, r28	; 61
    17da:	ed 01       	movw	r28, r26
    17dc:	08 95       	ret

000017de <_exit>:
    17de:	f8 94       	cli

000017e0 <__stop_program>:
    17e0:	ff cf       	rjmp	.-2      	; 0x17e0 <__stop_program>
